TN:
SF:/home/p/Рабочий стол/Policaika/workspace/reports/lab05/banking/Account.cpp
FNL:0,10,10
FNA:0,6,_ZNK7Account10GetBalanceEv
FNL:1,12,15
FNA:1,6,_ZN7Account13ChangeBalanceEi
FNL:2,17,20
FNA:2,15,_ZN7Account4LockEv
FNL:3,22,22
FNA:3,3,_ZN7Account6UnlockEv
FNL:4,5,6
FNA:4,66,_ZN7AccountC2Eii
FNL:5,8,8
FNA:5,18,_ZN7AccountD0Ev
FNA:5,66,_ZN7AccountD2Ev
FNF:6
FNH:6
DA:5,66
DA:6,66
DA:8,84
DA:10,6
DA:12,6
DA:13,6
DA:14,3
DA:15,3
DA:17,15
DA:18,15
DA:19,12
DA:20,12
DA:22,3
LF:13
LH:13
end_of_record
TN:
SF:/home/p/Рабочий стол/Policaika/workspace/reports/lab05/banking/Account.h
FNL:0,18,18
FNA:0,63,_ZNK7Account2idEv
FNF:1
FNH:1
DA:18,63
LF:1
LH:1
end_of_record
TN:
SF:/home/p/Рабочий стол/Policaika/workspace/reports/lab05/banking/Transaction.cpp
FNL:0,12,12
FNA:0,12,_ZN12_GLOBAL__N_15GuardC2ER7Account
FNL:1,14,14
FNA:1,12,_ZN12_GLOBAL__N_15GuardD2Ev
FNL:2,21,21
FNA:2,24,_ZN11TransactionC2Ev
FNL:3,23,23
FNA:3,24,_ZN11TransactionD0Ev
FNA:3,24,_ZN11TransactionD2Ev
FNL:4,25,44
FNA:4,18,_ZN11Transaction4MakeER7AccountS1_i
FNL:5,46,49
FNA:5,6,_ZN11Transaction6CreditER7Accounti
FNL:6,51,58
FNA:6,6,_ZN11Transaction5DebitER7Accounti
FNL:7,60,65
FNA:7,6,_ZN11Transaction14SaveToDataBaseER7AccountS1_i
FNF:8
FNH:8
DA:12,12
DA:14,12
DA:21,24
DA:23,48
DA:25,18
DA:26,18
DA:28,15
DA:30,12
DA:32,9
DA:34,6
DA:35,6
DA:37,6
DA:39,6
DA:40,6
DA:42,6
DA:43,6
DA:44,6
DA:46,6
DA:47,6
DA:48,6
DA:49,6
DA:51,6
DA:52,6
DA:53,6
DA:54,3
DA:55,3
DA:57,3
DA:60,6
DA:61,6
DA:62,6
DA:63,6
DA:64,6
DA:65,6
LF:33
LH:33
end_of_record
TN:
SF:/home/p/Рабочий стол/Policaika/workspace/reports/lab05/banking/Transaction.h
FNL:0,12,12
FNA:0,6,_ZNK11Transaction3feeEv
FNL:1,13,13
FNA:1,6,_ZN11Transaction7set_feeEi
FNF:2
FNH:2
DA:12,6
DA:13,6
LF:2
LH:2
end_of_record
TN:
SF:/home/p/Рабочий стол/Policaika/workspace/reports/lab05/tests/test_account.cpp
FNL:0,11,13
FNA:0,3,_ZN30AccountFixture_GetBalance_Test8TestBodyEv
FNA:0,3,_ZN30AccountFixture_GetBalance_TestC2Ev
FNA:0,3,_ZN30AccountFixture_GetBalance_TestD0Ev
FNA:0,3,_ZN30AccountFixture_GetBalance_TestD2Ev
FNL:1,15,19
FNA:1,3,_ZN37AccountFixture_ChangeBalanceGood_Test8TestBodyEv
FNA:1,3,_ZN37AccountFixture_ChangeBalanceGood_TestC2Ev
FNA:1,3,_ZN37AccountFixture_ChangeBalanceGood_TestD0Ev
FNA:1,3,_ZN37AccountFixture_ChangeBalanceGood_TestD2Ev
FNL:2,21,23
FNA:2,3,_ZN36AccountFixture_ChangeBalanceBad_Test8TestBodyEv
FNA:2,3,_ZN36AccountFixture_ChangeBalanceBad_TestC2Ev
FNA:2,3,_ZN36AccountFixture_ChangeBalanceBad_TestD0Ev
FNA:2,3,_ZN36AccountFixture_ChangeBalanceBad_TestD2Ev
FNL:3,25,27
FNA:3,3,_ZN25AccountFixture_GetID_Test8TestBodyEv
FNA:3,3,_ZN25AccountFixture_GetID_TestC2Ev
FNA:3,3,_ZN25AccountFixture_GetID_TestD0Ev
FNA:3,3,_ZN25AccountFixture_GetID_TestD2Ev
FNL:4,29,32
FNA:4,3,_ZN29AccountFixture_LockTwice_Test8TestBodyEv
FNA:4,3,_ZN29AccountFixture_LockTwice_TestC2Ev
FNA:4,3,_ZN29AccountFixture_LockTwice_TestD0Ev
FNA:4,3,_ZN29AccountFixture_LockTwice_TestD2Ev
FNL:5,34,38
FNA:5,3,_ZN33AccountFixture_LockAndUnlock_Test8TestBodyEv
FNA:5,3,_ZN33AccountFixture_LockAndUnlock_TestC2Ev
FNA:5,3,_ZN33AccountFixture_LockAndUnlock_TestD0Ev
FNA:5,3,_ZN33AccountFixture_LockAndUnlock_TestD2Ev
FNL:6,7,7
FNA:6,18,_ZN14AccountFixture5SetUpEv
FNL:7,8,8
FNA:7,18,_ZN14AccountFixture8TearDownEv
FNF:8
FNH:8
DA:7,18
DA:8,18
DA:11,12
DA:12,3
DA:13,3
DA:15,12
DA:16,3
DA:17,3
DA:18,3
DA:19,3
DA:21,12
DA:22,3
DA:23,3
DA:25,12
DA:26,3
DA:27,3
DA:29,12
DA:30,3
DA:31,3
DA:32,3
DA:34,12
DA:35,3
DA:36,3
DA:37,3
DA:38,3
LF:25
LH:25
end_of_record
TN:
SF:/home/p/Рабочий стол/Policaika/workspace/reports/lab05/tests/test_transaction.cpp
FNL:0,10,10
FNA:0,18,_ZNK11AccountMock10GetBalanceEv
FNA:0,12,_ZNK11AccountMock16gmock_GetBalanceEv
FNL:1,11,11
FNA:1,12,_ZN11AccountMock13ChangeBalanceEi
FNA:1,9,_ZN11AccountMock19gmock_ChangeBalanceERKN7testing7MatcherIiEE
FNL:2,12,12
FNA:2,12,_ZN11AccountMock4LockEv
FNL:3,13,13
FNA:3,12,_ZN11AccountMock6UnlockEv
FNL:4,21,25
FNA:4,24,_ZN18TransactionFixture5SetUpEv
FNL:5,26,30
FNA:5,24,_ZN18TransactionFixture8TearDownEv
FNL:6,33,35
FNA:6,3,_ZN27TransactionFixture_Fee_Test8TestBodyEv
FNA:6,3,_ZN27TransactionFixture_Fee_TestC2Ev
FNA:6,3,_ZN27TransactionFixture_Fee_TestD0Ev
FNA:6,3,_ZN27TransactionFixture_Fee_TestD2Ev
FNL:7,37,40
FNA:7,3,_ZN30TransactionFixture_SetFee_Test8TestBodyEv
FNA:7,3,_ZN30TransactionFixture_SetFee_TestC2Ev
FNA:7,3,_ZN30TransactionFixture_SetFee_TestD0Ev
FNA:7,3,_ZN30TransactionFixture_SetFee_TestD2Ev
FNL:8,42,48
FNA:8,3,_ZN42TransactionFixture_SuccessfulTransfer_Test8TestBodyEv
FNA:8,3,_ZN42TransactionFixture_SuccessfulTransfer_TestC2Ev
FNA:8,3,_ZN42TransactionFixture_SuccessfulTransfer_TestD0Ev
FNA:8,3,_ZN42TransactionFixture_SuccessfulTransfer_TestD2Ev
FNL:9,50,52
FNA:9,3,_ZN42TransactionFixture_TransferToYourself_Test8TestBodyEv
FNA:9,3,_ZN42TransactionFixture_TransferToYourself_TestC2Ev
FNA:9,3,_ZN42TransactionFixture_TransferToYourself_TestD0Ev
FNA:9,3,_ZN42TransactionFixture_TransferToYourself_TestD2Ev
FNL:10,54,56
FNA:10,3,_ZN43TransactionFixture_NegativeSumTransfer_Test8TestBodyEv
FNA:10,3,_ZN43TransactionFixture_NegativeSumTransfer_TestC2Ev
FNA:10,3,_ZN43TransactionFixture_NegativeSumTransfer_TestD0Ev
FNA:10,3,_ZN43TransactionFixture_NegativeSumTransfer_TestD2Ev
FNL:11,58,60
FNA:11,3,_ZN43TransactionFixture_TooSmallSumTransfer_Test8TestBodyEv
FNA:11,3,_ZN43TransactionFixture_TooSmallSumTransfer_TestC2Ev
FNA:11,3,_ZN43TransactionFixture_TooSmallSumTransfer_TestD0Ev
FNA:11,3,_ZN43TransactionFixture_TooSmallSumTransfer_TestD2Ev
FNL:12,62,65
FNA:12,3,_ZN33TransactionFixture_TooBigFee_Test8TestBodyEv
FNA:12,3,_ZN33TransactionFixture_TooBigFee_TestC2Ev
FNA:12,3,_ZN33TransactionFixture_TooBigFee_TestD0Ev
FNA:12,3,_ZN33TransactionFixture_TooBigFee_TestD2Ev
FNL:13,67,73
FNA:13,3,_ZN41TransactionFixture_TooBigSumTransfer_Test8TestBodyEv
FNA:13,3,_ZN41TransactionFixture_TooBigSumTransfer_TestC2Ev
FNA:13,3,_ZN41TransactionFixture_TooBigSumTransfer_TestD0Ev
FNA:13,3,_ZN41TransactionFixture_TooBigSumTransfer_TestD2Ev
FNL:14,8,8
FNA:14,48,_ZN11AccountMockC2Eii
FNF:15
FNH:15
DA:8,48
DA:10,30
DA:11,33
DA:12,12
DA:13,12
DA:21,24
DA:22,24
DA:23,24
DA:24,24
DA:25,24
DA:26,24
DA:27,24
DA:28,24
DA:29,24
DA:30,24
DA:33,12
DA:34,3
DA:35,3
DA:37,12
DA:38,3
DA:39,3
DA:40,3
DA:42,12
DA:43,3
DA:44,3
DA:45,3
DA:47,3
DA:48,3
DA:50,12
DA:51,3
DA:52,3
DA:54,12
DA:55,3
DA:56,3
DA:58,12
DA:59,3
DA:60,3
DA:62,12
DA:63,3
DA:64,3
DA:65,3
DA:67,12
DA:68,3
DA:69,3
DA:70,3
DA:71,3
DA:72,3
DA:73,3
LF:48
LH:48
end_of_record
TN:
SF:/home/p/Рабочий стол/Policaika/workspace/reports/lab05/third-party/gtest/googlemock/include/gmock/gmock-actions.h
FNL:0,1002,1010
FNA:0,3,_ZN7testing8internal12ReturnActionIiE4ImplIiE5StateC2EOi
FNL:1,1265,1267
FNA:1,12,_ZNK7testing8internal15DoDefaultActioncvNS_6ActionIT_EEIFivEEEv
FNA:1,9,_ZNK7testing8internal15DoDefaultActioncvNS_6ActionIT_EEIFviEEEv
FNL:2,1955,1957
FNA:2,15,_ZN7testing6ReturnIiEENS_8internal12ReturnActionIT_EES3_
FNL:3,2016,2018
FNA:3,21,_ZN7testing9DoDefaultEv
FNL:4,259,259
FNA:4,0,_ZN7testing8internal19BuiltInDefaultValueIiE3GetEv
FNA:4,0,_ZN7testing8internal19BuiltInDefaultValueIiE6ExistsEv
FNL:5,378,380
FNA:5,12,_ZN7testing8internal8as_constIiEERNSt9add_constIT_E4typeERS3_
FNL:6,462,464
FNA:6,3,_ZN7testing10OnceActionIFivEEC2INS_8internal12ReturnActionIiE4ImplIiEELi0EEEOT_
FNL:7,491,491
FNA:7,3,_ZN7testing10OnceActionIFivEEC2EOS2_
FNL:8,495,497
FNA:8,3,_ZNO7testing10OnceActionIFivEE4CallEv
FNL:9,516,517
FNA:9,3,_ZN7testing10OnceActionIFivEE18StdFunctionAdaptorINS_8internal12ReturnActionIiE4ImplIiEEEC2IS8_EENS9_11CallableTagEOT_
FNL:10,538,541
FNA:10,3,_ZNK7testing10OnceActionIFivEE18StdFunctionAdaptorINS_8internal12ReturnActionIiE4ImplIiEEEclIJEEEDTclclL_ZSt7declvalIS8_EDTcl9__declvalIT_ELi0EEEvEEspcl7declvalIT_EEEEDpOSE_
FNL:11,602,602
FNA:11,0,_ZN7testing12DefaultValueIiE5IsSetEv
FNL:12,606,608
FNA:12,0,_ZN7testing12DefaultValueIiE6ExistsEv
FNL:13,613,616
FNA:13,0,_ZN7testing12DefaultValueIiE3GetEv
FNL:14,690,690
FNA:14,36,_ZN7testing12DefaultValueIvE6ExistsEv
FNL:15,691,691
FNA:15,36,_ZN7testing12DefaultValueIvE3GetEv
FNL:16,759,759
FNA:16,12,_ZN7testing6ActionIFivEEC2Ev
FNA:16,9,_ZN7testing6ActionIFviEEC2Ev
FNL:17,769,771
FNA:17,12,_ZN7testing6ActionIFivEEC2INS_8internal12ReturnActionIiE4ImplIiEEvEEOT_
FNA:17,3,_ZN7testing6ActionIFivEEC2INS_8internal16TypedExpectationIS1_E13ActionAdaptorEvEEOT_
FNL:18,785,785
FNA:18,36,_ZNK7testing6ActionIFivEE11IsDoDefaultEv
FNA:18,9,_ZNK7testing6ActionIFviEE11IsDoDefaultEv
FNA:18,0,_ZNK7testing6ActionIFvvEE11IsDoDefaultEv
FNL:19,793,798
FNA:19,18,_ZNK7testing6ActionIFivEE7PerformESt5tupleIJEE
FNA:19,0,_ZNK7testing6ActionIFviEE7PerformESt5tupleIJiEE
FNA:19,0,_ZNK7testing6ActionIFvvEE7PerformESt5tupleIJEE
FNL:20,823,825
FNA:20,12,_ZN7testing6ActionIFivEE4InitINS_8internal12ReturnActionIiE4ImplIiEEEEvOT_St17integral_constantIbLb1EE
FNA:20,3,_ZN7testing6ActionIFivEE4InitINS_8internal16TypedExpectationIS1_E13ActionAdaptorEEEvOT_St17integral_constantIbLb1EE
FNL:21,934,934
FNA:21,15,_ZN7testing8internal12ReturnActionIiEC2Ei
FNL:22,943,945
FNA:22,3,_ZNO7testing8internal12ReturnActionIiEcvNS_10OnceActionIFT_DpT0_EEEIiJEvEEv
FNL:23,954,956
FNA:23,12,_ZNK7testing8internal12ReturnActionIiEcvNS_6ActionIFT_DpT0_EEEIiJEvEEv
FNL:24,965,966
FNA:24,3,_ZN7testing8internal12ReturnActionIiE4ImplIiEC2EOi
FNL:25,970,970
FNA:25,12,_ZN7testing8internal12ReturnActionIiE4ImplIiEC2ERKi
FNL:26,972,972
FNA:26,3,_ZNO7testing8internal12ReturnActionIiE4ImplIiEclEv
FNL:27,973,973
FNA:27,15,_ZNKR7testing8internal12ReturnActionIiE4ImplIiEclEv
FNL:28,988,998
FNA:28,12,_ZN7testing8internal12ReturnActionIiE4ImplIiE5StateC2ERKi
FNF:29
FNH:25
DA:259,0
DA:378,12
DA:379,12
DA:462,3
DA:463,6
DA:464,3
DA:491,3
DA:495,3
DA:496,3
DA:516,3
DA:517,3
DA:538,3
DA:540,6
DA:602,0
DA:606,0
DA:607,0
DA:613,0
DA:614,0
DA:615,0
DA:690,36
DA:691,36
DA:759,21
DA:769,15
DA:770,30
DA:771,15
DA:785,45
DA:793,18
DA:794,18
DA:795,0
DA:797,18
DA:823,15
DA:824,15
DA:825,15
DA:934,15
DA:943,3
DA:944,6
DA:954,12
DA:955,12
DA:965,3
DA:966,6
DA:970,12
DA:972,6
DA:973,15
DA:988,12
DA:989,12
DA:998,12
DA:1002,3
DA:1003,3
DA:1010,6
DA:1265,21
DA:1266,21
DA:1955,15
DA:1956,15
DA:2016,21
DA:2017,21
LF:55
LH:47
end_of_record
TN:
SF:/home/p/Рабочий стол/Policaika/workspace/reports/lab05/third-party/gtest/googlemock/include/gmock/gmock-cardinalities.h
FNL:0,113,115
FNA:0,54,_ZNK7testing11Cardinality22IsSaturatedByCallCountEi
FNF:1
FNH:1
DA:113,54
DA:114,54
LF:2
LH:2
end_of_record
TN:
SF:/home/p/Рабочий стол/Policaika/workspace/reports/lab05/third-party/gtest/googlemock/include/gmock/gmock-matchers.h
FNL:0,308,308
FNA:0,0,_ZN7testing25StringMatchResultListenerC2Ev
FNL:1,311,311
FNA:1,0,_ZNK7testing25StringMatchResultListener3strB5cxx11Ev
FNL:2,4654,4656
FNA:2,12,_ZN7testing1AIRKSt5tupleIJEEEENS_7MatcherIT_EEv
FNA:2,9,_ZN7testing1AIRKSt5tupleIJiEEEENS_7MatcherIT_EEv
FNL:3,581,586
FNA:3,0,_ZN7testing8internal15PrintIfNotEmptyERKNSt7__cxx1112basic_stringIcSt11char_traitsIcESaIcEEEPSo
FNL:4,635,639
FNA:4,12,_ZN7testing8internal11TuplePrefixILm1EE7MatchesISt5tupleIJNS_7MatcherIiEEEES4_IJiEEEEbRKT_RKT0_
FNL:5,646,672
FNA:5,0,_ZN7testing8internal11TuplePrefixILm1EE22ExplainMatchFailuresToISt5tupleIJNS_7MatcherIiEEEES4_IJiEEEEvRKT_RKT0_PSo
FNL:6,680,683
FNA:6,18,_ZN7testing8internal11TuplePrefixILm0EE7MatchesISt5tupleIJEES5_EEbRKT_RKT0_
FNA:6,12,_ZN7testing8internal11TuplePrefixILm0EE7MatchesISt5tupleIJNS_7MatcherIiEEEES4_IJiEEEEbRKT_RKT0_
FNL:7,686,688
FNA:7,0,_ZN7testing8internal11TuplePrefixILm0EE22ExplainMatchFailuresToISt5tupleIJEES5_EEvRKT_RKT0_PSo
FNA:7,0,_ZN7testing8internal11TuplePrefixILm0EE22ExplainMatchFailuresToISt5tupleIJNS_7MatcherIiEEEES4_IJiEEEEvRKT_RKT0_PSo
FNL:8,697,706
FNA:8,18,_ZN7testing8internal12TupleMatchesISt5tupleIJEES3_EEbRKT_RKT0_
FNA:8,12,_ZN7testing8internal12TupleMatchesISt5tupleIJNS_7MatcherIiEEEES2_IJiEEEEbRKT_RKT0_
FNL:9,711,715
FNA:9,0,_ZN7testing8internal26ExplainMatchFailureTupleToISt5tupleIJEES3_EEvRKT_RKT0_PSo
FNA:9,0,_ZN7testing8internal26ExplainMatchFailureTupleToISt5tupleIJNS_7MatcherIiEEEES2_IJiEEEEvRKT_RKT0_PSo
FNL:10,766,768
FNA:10,18,_ZNK7testing8internal15AnythingMatcher15MatchAndExplainISt5tupleIJEEEEbRKT_PSo
FNA:10,9,_ZNK7testing8internal15AnythingMatcher15MatchAndExplainISt5tupleIJiEEEEbRKT_PSo
FNL:11,769,769
FNA:11,0,_ZNK7testing8internal15AnythingMatcher10DescribeToEPSo
FNL:12,770,775
FNA:12,0,_ZNK7testing8internal15AnythingMatcher18DescribeNegationToEPSo
FNF:13
FNH:5
DA:308,0
DA:311,0
DA:581,0
DA:583,0
DA:584,0
DA:586,0
DA:635,12
DA:637,24
DA:638,24
DA:646,0
DA:650,0
DA:654,0
DA:655,0
DA:657,0
DA:658,0
DA:659,0
DA:660,0
DA:661,0
DA:662,0
DA:668,0
DA:669,0
DA:670,0
DA:672,0
DA:680,30
DA:682,30
DA:686,0
DA:688,0
DA:697,30
DA:704,30
DA:705,30
DA:711,0
DA:713,0
DA:715,0
DA:766,27
DA:767,27
DA:769,0
DA:770,0
DA:774,0
DA:775,0
DA:4654,21
DA:4655,21
LF:41
LH:12
end_of_record
TN:
SF:/home/p/Рабочий стол/Policaika/workspace/reports/lab05/third-party/gtest/googlemock/include/gmock/gmock-nice-strict.h
FNL:0,113,115
FNA:0,48,_ZN7testing8internal12NiceMockImplI11AccountMockEC2Ev
FNL:1,117,119
FNA:1,48,_ZN7testing8internal12NiceMockImplI11AccountMockED2Ev
FNL:2,177,182
FNA:2,48,_ZN7testing8NiceMockI11AccountMockEC2IiiJEEEOT_OT0_DpOT1_
FNF:3
FNH:3
DA:113,48
DA:114,48
DA:115,48
DA:117,48
DA:118,48
DA:119,48
DA:177,48
DA:178,96
DA:179,144
DA:182,48
LF:10
LH:10
end_of_record
TN:
SF:/home/p/Рабочий стол/Policaika/workspace/reports/lab05/third-party/gtest/googlemock/include/gmock/gmock-spec-builders.h
FNL:0,1003,1010
FNA:0,3,_ZN7testing8internal16TypedExpectationIFivEE8WillOnceENS_10OnceActionIS2_EE
FNL:1,1018,1030
FNA:1,3,_ZN7testing8internal16TypedExpectationIFivEE8WillOnceIJEvEERS3_NS_6ActionIS2_EE
FNL:2,1033,1055
FNA:2,12,_ZN7testing8internal16TypedExpectationIFivEE14WillRepeatedlyERKNS_6ActionIS2_EE
FNL:3,1081,1081
FNA:3,15,_ZNK7testing8internal16TypedExpectationIFivEE15repeated_actionEv
FNA:3,9,_ZNK7testing8internal16TypedExpectationIFviEE15repeated_actionEv
FNA:3,0,_ZNK7testing8internal16TypedExpectationIFvvEE15repeated_actionEv
FNL:4,1085,1091
FNA:4,0,_ZN7testing8internal16TypedExpectationIFivEE27MaybeDescribeExtraMatcherToEPSo
FNA:4,0,_ZN7testing8internal16TypedExpectationIFviEE27MaybeDescribeExtraMatcherToEPSo
FNL:5,1102,1104
FNA:5,3,_ZNK7testing8internal16TypedExpectationIFivEE13ActionAdaptorclEv
FNL:6,1109,1109
FNA:6,0,_ZN7testing8internal16TypedExpectationIFivEE9GetHandleEv
FNA:6,0,_ZN7testing8internal16TypedExpectationIFviEE9GetHandleEv
FNL:7,1116,1120
FNA:7,18,_ZNK7testing8internal16TypedExpectationIFivEE7MatchesERKSt5tupleIJEE
FNA:7,12,_ZNK7testing8internal16TypedExpectationIFviEE7MatchesERKSt5tupleIJiEE
FNA:7,0,_ZNK7testing8internal16TypedExpectationIFvvEE7MatchesERKSt5tupleIJEE
FNL:8,1124,1134
FNA:8,18,_ZNK7testing8internal16TypedExpectationIFivEE21ShouldHandleArgumentsERKSt5tupleIJEE
FNA:8,12,_ZNK7testing8internal16TypedExpectationIFviEE21ShouldHandleArgumentsERKSt5tupleIJiEE
FNA:8,0,_ZNK7testing8internal16TypedExpectationIFvvEE21ShouldHandleArgumentsERKSt5tupleIJEE
FNL:9,1138,1178
FNA:9,0,_ZNK7testing8internal16TypedExpectationIFivEE20ExplainMatchResultToERKSt5tupleIJEEPSo
FNA:9,0,_ZNK7testing8internal16TypedExpectationIFviEE20ExplainMatchResultToERKSt5tupleIJiEEPSo
FNA:9,0,_ZNK7testing8internal16TypedExpectationIFvvEE20ExplainMatchResultToERKSt5tupleIJEEPSo
FNL:10,1181,1209
FNA:10,18,_ZNK7testing8internal16TypedExpectationIFivEE16GetCurrentActionEPKNS0_14FunctionMockerIS2_EERKSt5tupleIJEE
FNA:10,9,_ZNK7testing8internal16TypedExpectationIFviEE16GetCurrentActionEPKNS0_14FunctionMockerIS2_EERKSt5tupleIJiEE
FNA:10,0,_ZNK7testing8internal16TypedExpectationIFvvEE16GetCurrentActionEPKNS0_14FunctionMockerIS2_EERKSt5tupleIJEE
FNL:11,1218,1253
FNA:11,18,_ZN7testing8internal16TypedExpectationIFivEE21GetActionForArgumentsEPKNS0_14FunctionMockerIS2_EERKSt5tupleIJEEPSoSC_
FNA:11,9,_ZN7testing8internal16TypedExpectationIFviEE21GetActionForArgumentsEPKNS0_14FunctionMockerIS2_EERKSt5tupleIJiEEPSoSC_
FNA:11,0,_ZN7testing8internal16TypedExpectationIFvvEE21GetActionForArgumentsEPKNS0_14FunctionMockerIS2_EERKSt5tupleIJEEPSoSC_
FNL:12,1290,1292
FNA:12,12,_ZN7testing8internal8MockSpecIFivEEC2EPNS0_14FunctionMockerIS2_EERKSt5tupleIJEE
FNA:12,9,_ZN7testing8internal8MockSpecIFviEEC2EPNS0_14FunctionMockerIS2_EERKSt5tupleIJNS_7MatcherIiEEEE
FNL:13,1306,1314
FNA:13,12,_ZN7testing8internal8MockSpecIFivEE18InternalExpectedAtEPKciS5_S5_
FNA:13,9,_ZN7testing8internal8MockSpecIFviEE18InternalExpectedAtEPKciS5_S5_
FNL:14,1319,1321
FNA:14,12,_ZN7testing8internal8MockSpecIFivEEclERKNS0_15WithoutMatchersEPv
FNA:14,9,_ZN7testing8internal8MockSpecIFviEEclERKNS0_15WithoutMatchersEPv
FNL:15,1381,1385
FNA:15,0,_ZN7testing8internal19PrintAsActionResultIiEEvRKT_RSo
FNL:16,1406,1408
FNA:16,0,_ZN7testing8internal25UntypedFunctionMockerBase31UninterestingCallCleanupHandlerD2Ev
FNL:17,1419,1434
FNA:17,0,_ZN7testing8internal25UntypedFunctionMockerBase21FailureCleanupHandlerD2Ev
FNL:18,1449,1449
FNA:18,48,_ZN7testing8internal14FunctionMockerIFivEEC2Ev
FNA:18,48,_ZN7testing8internal14FunctionMockerIFviEEC2Ev
FNA:18,96,_ZN7testing8internal14FunctionMockerIFvvEEC2Ev
FNL:19,1469,1474
FNA:19,0,_ZN7testing8internal14FunctionMockerIFivEED0Ev
FNA:19,48,_ZN7testing8internal14FunctionMockerIFivEED2Ev
FNA:19,0,_ZN7testing8internal14FunctionMockerIFviEED0Ev
FNA:19,48,_ZN7testing8internal14FunctionMockerIFviEED2Ev
FNA:19,0,_ZN7testing8internal14FunctionMockerIFvvEED0Ev
FNA:19,96,_ZN7testing8internal14FunctionMockerIFvvEED2Ev
FNL:20,1479,1488
FNA:20,0,_ZNK7testing8internal14FunctionMockerIFivEE14FindOnCallSpecERKSt5tupleIJEE
FNA:20,12,_ZNK7testing8internal14FunctionMockerIFviEE14FindOnCallSpecERKSt5tupleIJiEE
FNA:20,24,_ZNK7testing8internal14FunctionMockerIFvvEE14FindOnCallSpecERKSt5tupleIJEE
FNL:21,1497,1515
FNA:21,0,_ZNK7testing8internal14FunctionMockerIFivEE20PerformDefaultActionEOSt5tupleIJEERKNSt7__cxx1112basic_stringIcSt11char_traitsIcESaIcEEE
FNA:21,12,_ZNK7testing8internal14FunctionMockerIFviEE20PerformDefaultActionEOSt5tupleIJiEERKNSt7__cxx1112basic_stringIcSt11char_traitsIcESaIcEEE
FNA:21,24,_ZNK7testing8internal14FunctionMockerIFvvEE20PerformDefaultActionEOSt5tupleIJEERKNSt7__cxx1112basic_stringIcSt11char_traitsIcESaIcEEE
FNL:22,1519,1542
FNA:22,48,_ZN7testing8internal14FunctionMockerIFivEE25ClearDefaultActionsLockedEv
FNA:22,48,_ZN7testing8internal14FunctionMockerIFviEE25ClearDefaultActionsLockedEv
FNA:22,96,_ZN7testing8internal14FunctionMockerIFvvEE25ClearDefaultActionsLockedEv
FNL:23,1547,1549
FNA:23,18,_ZN7testing8internal14FunctionMockerIFivEE6InvokeEv
FNA:23,12,_ZN7testing8internal14FunctionMockerIFviEE6InvokeEi
FNA:23,24,_ZN7testing8internal14FunctionMockerIFvvEE6InvokeEv
FNL:24,1551,1553
FNA:24,12,_ZN7testing8internal14FunctionMockerIFivEE4WithEv
FNA:24,9,_ZN7testing8internal14FunctionMockerIFviEE4WithENS_7MatcherIiEE
FNL:25,1570,1589
FNA:25,12,_ZN7testing8internal14FunctionMockerIFivEE17AddNewExpectationEPKciRKNSt7__cxx1112basic_stringIcSt11char_traitsIcESaIcEEERKSt5tupleIJEE
FNA:25,9,_ZN7testing8internal14FunctionMockerIFviEE17AddNewExpectationEPKciRKNSt7__cxx1112basic_stringIcSt11char_traitsIcESaIcEEERKSt5tupleIJNS_7MatcherIiEEEE
FNL:26,1600,1611
FNA:26,0,_ZNK7testing8internal14FunctionMockerIFivEE23DescribeDefaultActionToERKSt5tupleIJEEPSo
FNA:26,0,_ZNK7testing8internal14FunctionMockerIFviEE23DescribeDefaultActionToERKSt5tupleIJiEEPSo
FNA:26,0,_ZNK7testing8internal14FunctionMockerIFvvEE23DescribeDefaultActionToERKSt5tupleIJEEPSo
FNL:27,1616,1625
FNA:27,0,_ZNK7testing8internal14FunctionMockerIFivEE32UntypedDescribeUninterestingCallEPKvPSo
FNA:27,0,_ZNK7testing8internal14FunctionMockerIFviEE32UntypedDescribeUninterestingCallEPKvPSo
FNA:27,0,_ZNK7testing8internal14FunctionMockerIFvvEE32UntypedDescribeUninterestingCallEPKvPSo
FNL:28,1643,1665
FNA:28,18,_ZN7testing8internal14FunctionMockerIFivEE30UntypedFindMatchingExpectationEPKvPS5_PbPSoS8_
FNA:28,9,_ZN7testing8internal14FunctionMockerIFviEE30UntypedFindMatchingExpectationEPKvPS5_PbPSoS8_
FNA:28,0,_ZN7testing8internal14FunctionMockerIFvvEE30UntypedFindMatchingExpectationEPKvPS5_PbPSoS8_
FNL:29,1668,1673
FNA:29,0,_ZNK7testing8internal14FunctionMockerIFivEE16UntypedPrintArgsEPKvPSo
FNA:29,0,_ZNK7testing8internal14FunctionMockerIFviEE16UntypedPrintArgsEPKvPSo
FNA:29,0,_ZNK7testing8internal14FunctionMockerIFvvEE16UntypedPrintArgsEPKvPSo
FNL:30,1677,1692
FNA:30,18,_ZNK7testing8internal14FunctionMockerIFivEE29FindMatchingExpectationLockedERKSt5tupleIJEE
FNA:30,9,_ZNK7testing8internal14FunctionMockerIFviEE29FindMatchingExpectationLockedERKSt5tupleIJiEE
FNA:30,0,_ZNK7testing8internal14FunctionMockerIFvvEE29FindMatchingExpectationLockedERKSt5tupleIJEE
FNL:31,1695,1703
FNA:31,0,_ZNK7testing8internal14FunctionMockerIFivEE33FormatUnexpectedCallMessageLockedERKSt5tupleIJEEPSoS8_
FNA:31,0,_ZNK7testing8internal14FunctionMockerIFviEE33FormatUnexpectedCallMessageLockedERKSt5tupleIJiEEPSoS8_
FNA:31,0,_ZNK7testing8internal14FunctionMockerIFvvEE33FormatUnexpectedCallMessageLockedERKSt5tupleIJEEPSoS8_
FNL:32,1707,1728
FNA:32,0,_ZNK7testing8internal14FunctionMockerIFivEE28PrintTriedExpectationsLockedERKSt5tupleIJEEPSo
FNA:32,0,_ZNK7testing8internal14FunctionMockerIFviEE28PrintTriedExpectationsLockedERKSt5tupleIJiEEPSo
FNA:32,0,_ZNK7testing8internal14FunctionMockerIFvvEE28PrintTriedExpectationsLockedERKSt5tupleIJEEPSo
FNL:33,1733,1743
FNA:33,18,_ZNK7testing8internal14FunctionMockerIFivEE13PerformActionEPKvOSt5tupleIJEERKNSt7__cxx1112basic_stringIcSt11char_traitsIcESaIcEEE
FNA:33,9,_ZNK7testing8internal14FunctionMockerIFviEE13PerformActionEPKvOSt5tupleIJiEERKNSt7__cxx1112basic_stringIcSt11char_traitsIcESaIcEEE
FNA:33,0,_ZNK7testing8internal14FunctionMockerIFvvEE13PerformActionEPKvOSt5tupleIJEERKNSt7__cxx1112basic_stringIcSt11char_traitsIcESaIcEEE
FNL:34,1758,1766
FNA:34,0,_ZN7testing8internal14FunctionMockerIFivEE27PerformActionAndPrintResultIiLi0EEEiPKvOSt5tupleIJEERKNSt7__cxx1112basic_stringIcSt11char_traitsIcESaIcEEERSo
FNL:35,1773,1778
FNA:35,0,_ZN7testing8internal14FunctionMockerIFviEE27PerformActionAndPrintResultIvLi0EEEvPKvOSt5tupleIJiEERKNSt7__cxx1112basic_stringIcSt11char_traitsIcESaIcEEERSo
FNA:35,0,_ZN7testing8internal14FunctionMockerIFvvEE27PerformActionAndPrintResultIvLi0EEEvPKvOSt5tupleIJEERKNSt7__cxx1112basic_stringIcSt11char_traitsIcESaIcEEERSo
FNL:36,1789,1896
FNA:36,18,_ZN7testing8internal14FunctionMockerIFivEE10InvokeWithEOSt5tupleIJEE
FNA:36,12,_ZN7testing8internal14FunctionMockerIFviEE10InvokeWithEOSt5tupleIJiEE
FNA:36,24,_ZN7testing8internal14FunctionMockerIFvvEE10InvokeWithEOSt5tupleIJEE
FNL:37,246,246
FNA:37,0,_ZNK7testing8internal21UntypedOnCallSpecBase4fileEv
FNL:38,247,247
FNA:38,0,_ZNK7testing8internal21UntypedOnCallSpecBase4lineEv
FNL:39,260,263
FNA:39,0,_ZNK7testing8internal21UntypedOnCallSpecBase18AssertSpecPropertyEbRKNSt7__cxx1112basic_stringIcSt11char_traitsIcESaIcEEE
FNL:40,323,325
FNA:40,0,_ZNK7testing8internal10OnCallSpecIFivEE7MatchesERKSt5tupleIJEE
FNA:40,0,_ZNK7testing8internal10OnCallSpecIFviEE7MatchesERKSt5tupleIJiEE
FNA:40,0,_ZNK7testing8internal10OnCallSpecIFvvEE7MatchesERKSt5tupleIJEE
FNL:41,328,333
FNA:41,0,_ZNK7testing8internal10OnCallSpecIFivEE9GetActionEv
FNA:41,0,_ZNK7testing8internal10OnCallSpecIFviEE9GetActionEv
FNA:41,0,_ZNK7testing8internal10OnCallSpecIFvvEE9GetActionEv
FNL:42,539,541
FNA:42,0,_ZNK7testing11Expectation16expectation_baseEv
FNL:43,569,569
FNA:43,21,_ZN7testing14ExpectationSetC2Ev
FNL:44,605,605
FNA:44,57,_ZNK7testing14ExpectationSet5beginEv
FNL:45,606,606
FNA:45,57,_ZNK7testing14ExpectationSet3endEv
FNL:46,693,693
FNA:46,0,_ZNK7testing8internal15ExpectationBase4fileEv
FNL:47,694,694
FNA:47,0,_ZNK7testing8internal15ExpectationBase4lineEv
FNL:48,695,695
FNA:48,27,_ZNK7testing8internal15ExpectationBase11source_textEv
FNL:49,697,697
FNA:49,114,_ZNK7testing8internal15ExpectationBase11cardinalityEv
FNL:50,700,702
FNA:50,0,_ZNK7testing8internal15ExpectationBase18DescribeLocationToEPSo
FNL:51,748,751
FNA:51,24,_ZNK7testing8internal15ExpectationBase18ExpectSpecPropertyEbRKNSt7__cxx1112basic_stringIcSt11char_traitsIcESaIcEEE
FNL:52,759,759
FNA:52,15,_ZNK7testing8internal15ExpectationBase21cardinality_specifiedEv
FNL:53,762,764
FNA:53,15,_ZN7testing8internal15ExpectationBase15set_cardinalityERKNS_11CardinalityE
FNL:54,774,777
FNA:54,57,_ZNK7testing8internal15ExpectationBase10is_retiredEv
FNL:55,780,783
FNA:55,0,_ZN7testing8internal15ExpectationBase6RetireEv
FNL:56,787,787
FNA:56,27,_ZNK7testing8internal15ExpectationBase14GetDescriptionB5cxx11Ev
FNL:57,796,799
FNA:57,54,_ZNK7testing8internal15ExpectationBase11IsSaturatedEv
FNL:58,817,820
FNA:58,27,_ZNK7testing8internal15ExpectationBase10call_countEv
FNL:59,823,826
FNA:59,27,_ZN7testing8internal15ExpectationBase18IncrementCallCountEv
FNL:60,887,897
FNA:60,12,_ZN7testing8internal16TypedExpectationIFivEEC2EPNS0_14FunctionMockerIS2_EEPKciRKNSt7__cxx1112basic_stringIcSt11char_traitsIcESaIcEEERKSt5tupleIJEE
FNA:60,9,_ZN7testing8internal16TypedExpectationIFviEEC2EPNS0_14FunctionMockerIS2_EEPKciRKNSt7__cxx1112basic_stringIcSt11char_traitsIcESaIcEEERKSt5tupleIJNS_7MatcherIiEEEE
FNL:61,899,907
FNA:61,12,_ZN7testing8internal16TypedExpectationIFivEED0Ev
FNA:61,12,_ZN7testing8internal16TypedExpectationIFivEED2Ev
FNA:61,9,_ZN7testing8internal16TypedExpectationIFviEED0Ev
FNA:61,9,_ZN7testing8internal16TypedExpectationIFviEED2Ev
FNL:62,935,938
FNA:62,9,_ZN7testing8internal16TypedExpectationIFviEE5TimesERKNS_11CardinalityE
FNL:63,941,941
FNA:63,9,_ZN7testing8internal16TypedExpectationIFviEE5TimesEi
FNF:64
FNH:41
DA:246,0
DA:247,0
DA:260,0
DA:262,0
DA:263,0
DA:323,0
DA:324,0
DA:328,0
DA:329,0
DA:330,0
DA:332,0
DA:539,0
DA:540,0
DA:569,21
DA:605,57
DA:606,57
DA:693,0
DA:694,0
DA:695,27
DA:697,114
DA:700,0
DA:701,0
DA:702,0
DA:748,24
DA:750,24
DA:751,24
DA:759,15
DA:762,15
DA:763,15
DA:764,15
DA:774,57
DA:775,57
DA:776,57
DA:780,0
DA:781,0
DA:782,0
DA:783,0
DA:787,27
DA:796,54
DA:797,54
DA:798,54
DA:817,27
DA:818,27
DA:819,27
DA:823,27
DA:824,27
DA:825,27
DA:826,27
DA:887,21
DA:891,21
DA:892,9
DA:896,21
DA:897,30
DA:899,42
DA:902,21
DA:903,42
DA:904,48
DA:905,3
DA:907,63
DA:935,9
DA:936,9
DA:937,9
DA:941,9
DA:1003,3
DA:1007,6
DA:1008,3
DA:1009,6
DA:1010,3
DA:1018,3
DA:1019,6
DA:1020,6
DA:1022,3
DA:1024,6
DA:1026,3
DA:1027,3
DA:1029,3
DA:1033,12
DA:1034,12
DA:1035,0
DA:1036,0
DA:1039,24
DA:1040,36
DA:1043,12
DA:1044,12
DA:1046,12
DA:1047,12
DA:1048,12
DA:1053,12
DA:1054,12
DA:1081,24
DA:1085,0
DA:1086,0
DA:1087,0
DA:1088,0
DA:1089,0
DA:1091,0
DA:1102,3
DA:1103,6
DA:1109,0
DA:1116,30
DA:1118,30
DA:1119,30
DA:1124,30
DA:1126,30
DA:1132,30
DA:1133,30
DA:1138,0
DA:1140,0
DA:1142,0
DA:1144,0
DA:1145,0
DA:1146,0
DA:1147,0
DA:1149,0
DA:1150,0
DA:1151,0
DA:1152,0
DA:1153,0
DA:1155,0
DA:1156,0
DA:1158,0
DA:1161,0
DA:1162,0
DA:1163,0
DA:1164,0
DA:1165,0
DA:1166,0
DA:1167,0
DA:1168,0
DA:1170,0
DA:1171,0
DA:1176,0
DA:1178,0
DA:1181,27
DA:1184,27
DA:1185,27
DA:1186,27
DA:1187,54
DA:1190,27
DA:1191,27
DA:1195,0
DA:1196,0
DA:1198,0
DA:1200,0
DA:1201,0
DA:1202,0
DA:1203,0
DA:1206,27
DA:1207,3
DA:1208,54
DA:1218,27
DA:1223,27
DA:1224,27
DA:1225,27
DA:1227,0
DA:1228,0
DA:1229,0
DA:1230,0
DA:1232,0
DA:1233,0
DA:1234,0
DA:1236,0
DA:1239,27
DA:1240,27
DA:1242,27
DA:1243,0
DA:1247,27
DA:1248,27
DA:1249,0
DA:1251,27
DA:1252,27
DA:1290,21
DA:1292,21
DA:1306,21
DA:1309,21
DA:1311,21
DA:1312,42
DA:1313,42
DA:1314,21
DA:1319,21
DA:1320,21
DA:1381,0
DA:1382,0
DA:1384,0
DA:1385,0
DA:1406,0
DA:1407,0
DA:1408,0
DA:1419,0
DA:1420,0
DA:1422,0
DA:1424,0
DA:1425,0
DA:1427,0
DA:1428,0
DA:1432,0
DA:1434,0
DA:1449,192
DA:1469,192
DA:1470,192
DA:1471,192
DA:1472,192
DA:1473,192
DA:1474,384
DA:1479,36
DA:1480,36
DA:1482,36
DA:1483,0
DA:1484,0
DA:1487,36
DA:1497,36
DA:1499,36
DA:1500,36
DA:1501,0
DA:1503,36
DA:1508,36
DA:1509,0
DA:1514,36
DA:1515,36
DA:1519,192
DA:1521,192
DA:1530,192
DA:1531,192
DA:1533,192
DA:1534,384
DA:1535,384
DA:1536,0
DA:1541,192
DA:1542,192
DA:1547,54
DA:1548,54
DA:1551,21
DA:1552,21
DA:1570,21
DA:1574,21
DA:1575,21
DA:1576,21
DA:1577,21
DA:1580,21
DA:1583,21
DA:1584,21
DA:1585,0
DA:1588,21
DA:1589,21
DA:1600,0
DA:1602,0
DA:1604,0
DA:1605,0
DA:1609,0
DA:1611,0
DA:1616,0
DA:1619,0
DA:1621,0
DA:1622,0
DA:1623,0
DA:1624,0
DA:1625,0
DA:1643,27
DA:1647,27
DA:1649,27
DA:1650,27
DA:1651,27
DA:1652,0
DA:1653,0
DA:1659,27
DA:1660,27
DA:1661,27
DA:1662,9
DA:1663,27
DA:1664,27
DA:1665,27
DA:1668,0
DA:1670,0
DA:1672,0
DA:1673,0
DA:1677,27
DA:1679,27
DA:1682,27
DA:1684,30
DA:1686,30
DA:1687,30
DA:1688,27
DA:1691,0
DA:1695,0
DA:1699,0
DA:1700,0
DA:1701,0
DA:1702,0
DA:1703,0
DA:1707,0
DA:1710,0
DA:1711,0
DA:1712,0
DA:1715,0
DA:1716,0
DA:1718,0
DA:1719,0
DA:1720,0
DA:1721,0
DA:1722,0
DA:1724,0
DA:1725,0
DA:1726,0
DA:1728,0
DA:1733,27
DA:1735,27
DA:1736,9
DA:1741,18
DA:1742,18
DA:1743,18
DA:1758,0
DA:1762,0
DA:1764,0
DA:1765,0
DA:1773,0
DA:1777,0
DA:1789,54
DA:1793,54
DA:1802,27
DA:1807,0
DA:1810,27
DA:1814,0
DA:1820,27
DA:1822,27
DA:1823,81
DA:1827,0
DA:1828,0
DA:1841,0
DA:1844,0
DA:1845,0
DA:1847,27
DA:1848,27
DA:1849,27
DA:1850,27
DA:1851,27
DA:1857,27
DA:1859,27
DA:1865,27
DA:1866,27
DA:1867,27
DA:1869,81
DA:1872,0
DA:1873,0
DA:1877,0
DA:1878,0
DA:1891,0
DA:1894,0
DA:1895,0
DA:1896,27
LF:349
LH:191
end_of_record
TN:
SF:/home/p/Рабочий стол/Policaika/workspace/reports/lab05/third-party/gtest/googlemock/include/gmock/internal/gmock-internal-utils.h
FNL:0,244,250
FNA:0,102,_ZN7testing8internal6AssertEbPKciRKNSt7__cxx1112basic_stringIcSt11char_traitsIcESaIcEEE
FNL:1,257,263
FNA:1,24,_ZN7testing8internal6ExpectEbPKciRKNSt7__cxx1112basic_stringIcSt11char_traitsIcESaIcEEE
FNL:2,442,446
FNA:2,18,_ZN7testing8internal9ApplyImplIRKSt8functionIFivEESt5tupleIJEEJEEEDTclcl7forwardIT_Efp_Espcl3getIXT1_EEcl7forwardIT0_Efp0_EEEEOS9_OSA_St16integer_sequenceImJXspT1_EEE
FNA:2,0,_ZN7testing8internal9ApplyImplIRKSt8functionIFviEESt5tupleIJiEEJLm0EEEEDTclcl7forwardIT_Efp_Espcl3getIXT1_EEcl7forwardIT0_Efp0_EEEEOS9_OSA_St16integer_sequenceImJXspT1_EEE
FNA:2,0,_ZN7testing8internal9ApplyImplIRKSt8functionIFvvEESt5tupleIJEEJEEEDTclcl7forwardIT_Efp_Espcl3getIXT1_EEcl7forwardIT0_Efp0_EEEEOS9_OSA_St16integer_sequenceImJXspT1_EEE
FNL:3,450,458
FNA:3,18,_ZN7testing8internal5ApplyIRKSt8functionIFivEESt5tupleIJEEEEDTcl9ApplyImplcl7forwardIT_Efp_Ecl7forwardIT0_Efp0_EcvSt16integer_sequenceImJXspcl14__integer_packsrSt10tuple_sizeINSt16remove_referenceISA_E4typeEE5valueEEEE_EEEOS9_OSA_
FNA:3,0,_ZN7testing8internal5ApplyIRKSt8functionIFviEESt5tupleIJiEEEEDTcl9ApplyImplcl7forwardIT_Efp_Ecl7forwardIT0_Efp0_EcvSt16integer_sequenceImJXspcl14__integer_packsrSt10tuple_sizeINSt16remove_referenceISA_E4typeEE5valueEEEE_EEEOS9_OSA_
FNA:3,0,_ZN7testing8internal5ApplyIRKSt8functionIFvvEESt5tupleIJEEEEDTcl9ApplyImplcl7forwardIT_Efp_Ecl7forwardIT0_Efp0_EcvSt16integer_sequenceImJXspcl14__integer_packsrSt10tuple_sizeINSt16remove_referenceISA_E4typeEE5valueEEEE_EEEOS9_OSA_
FNF:4
FNH:4
DA:244,102
DA:246,102
DA:247,0
DA:250,102
DA:257,24
DA:259,24
DA:260,0
DA:263,24
DA:442,18
DA:445,18
DA:450,18
DA:455,36
DA:457,18
LF:13
LH:11
end_of_record
TN:
SF:/home/p/Рабочий стол/Policaika/workspace/reports/lab05/third-party/gtest/googletest/include/gtest/gtest-assertion-result.h
FNL:0,162,168
FNA:0,24,_ZN7testing15AssertionResultC2IbEERKT_PNSt9enable_ifIXntsrSt14is_convertibleIS2_S0_E5valueEvE4typeE
FNL:1,181,181
FNA:1,24,_ZNK7testing15AssertionResultcvbEv
FNL:2,190,192
FNA:2,0,_ZNK7testing15AssertionResult7messageEv
FNL:3,194,194
FNA:3,0,_ZNK7testing15AssertionResult15failure_messageEv
FNF:4
FNH:2
DA:162,24
DA:168,24
DA:181,24
DA:190,0
DA:191,0
DA:194,0
LF:6
LH:3
end_of_record
TN:
SF:/home/p/Рабочий стол/Policaika/workspace/reports/lab05/third-party/gtest/googletest/include/gtest/gtest-matchers.h
FNL:0,111,111
FNA:0,0,_ZN7testing19MatchResultListenerD0Ev
FNA:0,39,_ZN7testing19MatchResultListenerD2Ev
FNL:1,117,117
FNA:1,0,_ZN7testing25MatcherDescriberInterfaceD0Ev
FNA:1,75,_ZN7testing25MatcherDescriberInterfaceD2Ev
FNL:2,132,136
FNA:2,0,_ZNK7testing25MatcherDescriberInterface18DescribeNegationToEPSo
FNL:3,186,186
FNA:3,39,_ZN7testing8internal24DummyMatchResultListenerC2Ev
FNL:4,209,209
FNA:4,0,_ZN7testing8internal17SharedPayloadBase3RefEv
FNL:5,210,210
FNA:5,0,_ZN7testing8internal17SharedPayloadBase5UnrefEv
FNL:6,233,236
FNA:6,18,_ZNK7testing8internal11MatcherBaseIRKSt5tupleIJEEE15MatchAndExplainES5_PNS_19MatchResultListenerE
FNA:6,9,_ZNK7testing8internal11MatcherBaseIRKSt5tupleIJiEEE15MatchAndExplainES5_PNS_19MatchResultListenerE
FNA:6,12,_ZNK7testing8internal11MatcherBaseIiE15MatchAndExplainERKiPNS_19MatchResultListenerE
FNL:7,239,242
FNA:7,18,_ZNK7testing8internal11MatcherBaseIRKSt5tupleIJEEE7MatchesES5_
FNA:7,9,_ZNK7testing8internal11MatcherBaseIRKSt5tupleIJiEEE7MatchesES5_
FNA:7,12,_ZNK7testing8internal11MatcherBaseIiE7MatchesERKi
FNL:8,245,248
FNA:8,0,_ZNK7testing8internal11MatcherBaseIRKSt5tupleIJEEE10DescribeToEPSo
FNA:8,0,_ZNK7testing8internal11MatcherBaseIRKSt5tupleIJiEEE10DescribeToEPSo
FNA:8,0,_ZNK7testing8internal11MatcherBaseIiE10DescribeToEPSo
FNL:9,251,254
FNA:9,0,_ZNK7testing8internal11MatcherBaseIRKSt5tupleIJEEE18DescribeNegationToEPSo
FNA:9,0,_ZNK7testing8internal11MatcherBaseIRKSt5tupleIJiEEE18DescribeNegationToEPSo
FNA:9,0,_ZNK7testing8internal11MatcherBaseIiE18DescribeNegationToEPSo
FNL:10,271,271
FNA:10,9,_ZN7testing8internal11MatcherBaseIiEC2Ev
FNL:11,282,284
FNA:11,12,_ZN7testing8internal11MatcherBaseIRKSt5tupleIJEEEC2IRKNS0_15AnythingMatcherEvEEOT_
FNA:11,9,_ZN7testing8internal11MatcherBaseIRKSt5tupleIJiEEEC2IRKNS0_15AnythingMatcherEvEEOT_
FNA:11,9,_ZN7testing8internal11MatcherBaseIiEC2INS0_9EqMatcherIiEEvEEOT_
FNL:12,286,289
FNA:12,27,_ZN7testing8internal11MatcherBaseIiEC2ERKS2_
FNL:13,300,303
FNA:13,9,_ZN7testing8internal11MatcherBaseIiEC2EOS2_
FNL:14,305,312
FNA:14,9,_ZN7testing8internal11MatcherBaseIiEaSEOS2_
FNL:15,314,314
FNA:15,0,_ZN7testing8internal11MatcherBaseIRKSt5tupleIJEEED0Ev
FNA:15,12,_ZN7testing8internal11MatcherBaseIRKSt5tupleIJEEED2Ev
FNA:15,0,_ZN7testing8internal11MatcherBaseIRKSt5tupleIJiEEED0Ev
FNA:15,9,_ZN7testing8internal11MatcherBaseIRKSt5tupleIJiEEED2Ev
FNA:15,0,_ZN7testing8internal11MatcherBaseIiED0Ev
FNA:15,54,_ZN7testing8internal11MatcherBaseIiED2Ev
FNL:16,328,330
FNA:16,12,_ZNK7testing8internal11MatcherBaseIRKSt5tupleIJEEE8IsSharedEv
FNA:16,9,_ZNK7testing8internal11MatcherBaseIRKSt5tupleIJiEEE8IsSharedEv
FNA:16,90,_ZNK7testing8internal11MatcherBaseIiE8IsSharedEv
FNL:17,334,338
FNA:17,18,_ZN7testing8internal11MatcherBaseIRKSt5tupleIJEEE19MatchAndExplainImplINS6_11ValuePolicyINS0_15AnythingMatcherELb1EEEEEDTcldtclsrT_3Getfp_E15MatchAndExplainfp0_clptfp1_L_ZNS_19MatchResultListener6streamEvEEEERKS6_S5_PSC_
FNA:17,9,_ZN7testing8internal11MatcherBaseIRKSt5tupleIJiEEE19MatchAndExplainImplINS6_11ValuePolicyINS0_15AnythingMatcherELb1EEEEEDTcldtclsrT_3Getfp_E15MatchAndExplainfp0_clptfp1_L_ZNS_19MatchResultListener6streamEvEEEERKS6_S5_PSC_
FNA:17,12,_ZN7testing8internal11MatcherBaseIiE19MatchAndExplainImplINS2_11ValuePolicyINS0_9EqMatcherIiEELb1EEEEEDTcldtclsrT_3Getfp_E15MatchAndExplainfp0_clptfp1_L_ZNS_19MatchResultListener6streamEvEEEERKS2_RKiPS9_
FNL:18,348,355
FNA:18,0,_ZN7testing8internal11MatcherBaseIRKSt5tupleIJEEE12DescribeImplINS6_11ValuePolicyINS0_15AnythingMatcherELb1EEEEEvRKS6_PSob
FNA:18,0,_ZN7testing8internal11MatcherBaseIRKSt5tupleIJiEEE12DescribeImplINS6_11ValuePolicyINS0_15AnythingMatcherELb1EEEEEvRKS6_PSob
FNA:18,0,_ZN7testing8internal11MatcherBaseIiE12DescribeImplINS2_11ValuePolicyINS0_9EqMatcherIiEELb1EEEEEvRKS2_PSob
FNL:19,358,371
FNA:19,0,_ZN7testing8internal11MatcherBaseIRKSt5tupleIJEEE16GetDescriberImplINS6_11ValuePolicyINS0_15AnythingMatcherELb1EEEEEPKNS_25MatcherDescriberInterfaceERKS6_
FNA:19,0,_ZN7testing8internal11MatcherBaseIRKSt5tupleIJiEEE16GetDescriberImplINS6_11ValuePolicyINS0_15AnythingMatcherELb1EEEEEPKNS_25MatcherDescriberInterfaceERKS6_
FNA:19,0,_ZN7testing8internal11MatcherBaseIiE16GetDescriberImplINS2_11ValuePolicyINS0_9EqMatcherIiEELb1EEEEEPKNS_25MatcherDescriberInterfaceERKS2_
FNL:20,374,379
FNA:20,12,_ZN7testing8internal11MatcherBaseIRKSt5tupleIJEEE9GetVTableINS6_11ValuePolicyINS0_15AnythingMatcherELb1EEEEEPKNS6_6VTableEv
FNA:20,9,_ZN7testing8internal11MatcherBaseIRKSt5tupleIJiEEE9GetVTableINS6_11ValuePolicyINS0_15AnythingMatcherELb1EEEEEPKNS6_6VTableEv
FNA:20,9,_ZN7testing8internal11MatcherBaseIiE9GetVTableINS2_11ValuePolicyINS0_9EqMatcherIiEELb1EEEEEPKNS2_6VTableEv
FNL:21,390,394
FNA:21,12,_ZN7testing8internal11MatcherBaseIRKSt5tupleIJEEE7DestroyEv
FNA:21,9,_ZN7testing8internal11MatcherBaseIRKSt5tupleIJiEEE7DestroyEv
FNA:21,63,_ZN7testing8internal11MatcherBaseIiE7DestroyEv
FNL:22,405,411
FNA:22,18,_ZN7testing8internal11MatcherBaseIRKSt5tupleIJEEE11ValuePolicyINS0_15AnythingMatcherELb1EE3GetERKS6_
FNA:22,9,_ZN7testing8internal11MatcherBaseIRKSt5tupleIJiEEE11ValuePolicyINS0_15AnythingMatcherELb1EE3GetERKS6_
FNA:22,12,_ZN7testing8internal11MatcherBaseIiE11ValuePolicyINS0_9EqMatcherIiEELb1EE3GetERKS2_
FNL:23,412,414
FNA:23,12,_ZN7testing8internal11MatcherBaseIRKSt5tupleIJEEE11ValuePolicyINS0_15AnythingMatcherELb1EE4InitERS6_S8_
FNA:23,9,_ZN7testing8internal11MatcherBaseIRKSt5tupleIJiEEE11ValuePolicyINS0_15AnythingMatcherELb1EE4InitERS6_S8_
FNA:23,9,_ZN7testing8internal11MatcherBaseIiE11ValuePolicyINS0_9EqMatcherIiEELb1EE4InitERS2_S5_
FNL:24,446,451
FNA:24,12,_ZN7testing8internal11MatcherBaseIRKSt5tupleIJEEE4InitIRKNS0_15AnythingMatcherEEEvOT_
FNA:24,9,_ZN7testing8internal11MatcherBaseIRKSt5tupleIJiEEE4InitIRKNS0_15AnythingMatcherEEEvOT_
FNA:24,9,_ZN7testing8internal11MatcherBaseIiE4InitINS0_9EqMatcherIiEEEEvOT_
FNL:25,484,484
FNA:25,12,_ZN7testing7MatcherIRKSt5tupleIJEEEC2IRKNS_8internal15AnythingMatcherEvEEOT_
FNA:25,9,_ZN7testing7MatcherIRKSt5tupleIJiEEEC2IRKNS_8internal15AnythingMatcherEvEEOT_
FNA:25,9,_ZN7testing7MatcherIiEC2INS_8internal9EqMatcherIiEEvEEOT_
FNL:26,704,704
FNA:26,9,_ZN7testing8internal14ComparisonBaseINS0_9EqMatcherIiEEiSt8equal_toIvEEC2ERKi
FNL:27,709,711
FNA:27,12,_ZNK7testing8internal14ComparisonBaseINS0_9EqMatcherIiEEiSt8equal_toIvEE15MatchAndExplainIiEEbRKT_PSo
FNL:28,712,715
FNA:28,0,_ZNK7testing8internal14ComparisonBaseINS0_9EqMatcherIiEEiSt8equal_toIvEE10DescribeToEPSo
FNL:29,716,719
FNA:29,0,_ZNK7testing8internal14ComparisonBaseINS0_9EqMatcherIiEEiSt8equal_toIvEE18DescribeNegationToEPSo
FNL:30,723,725
FNA:30,12,_ZN7testing8internal14ComparisonBaseINS0_9EqMatcherIiEEiSt8equal_toIvEE6UnwrapIiEERKT_SA_
FNL:31,738,739
FNA:31,9,_ZN7testing8internal9EqMatcherIiEC2ERKi
FNL:32,740,740
FNA:32,0,_ZN7testing8internal9EqMatcherIiE4DescEv
FNL:33,741,741
FNA:33,0,_ZN7testing8internal9EqMatcherIiE11NegatedDescEv
FNL:34,84,84
FNA:34,39,_ZN7testing19MatchResultListenerC2EPSo
FNL:35,904,906
FNA:35,9,_ZN7testing2EqIiEENS_8internal9EqMatcherIT_EES3_
FNL:36,911,913
FNA:36,9,_ZN7testing7MatcherIiEC2Ei
FNL:37,96,96
FNA:37,39,_ZN7testing19MatchResultListener6streamEv
FNF:38
FNH:27
DA:84,39
DA:96,39
DA:111,39
DA:117,75
DA:132,0
DA:133,0
DA:134,0
DA:135,0
DA:136,0
DA:186,39
DA:209,0
DA:210,0
DA:233,39
DA:234,39
DA:235,39
DA:239,39
DA:240,39
DA:241,78
DA:242,39
DA:245,0
DA:246,0
DA:247,0
DA:248,0
DA:251,0
DA:252,0
DA:253,0
DA:254,0
DA:271,9
DA:282,30
DA:283,30
DA:284,30
DA:286,27
DA:287,27
DA:288,27
DA:289,27
DA:300,9
DA:301,9
DA:302,9
DA:303,9
DA:305,9
DA:306,9
DA:307,9
DA:308,9
DA:309,9
DA:310,9
DA:311,9
DA:314,75
DA:328,111
DA:329,111
DA:334,39
DA:337,39
DA:348,0
DA:350,0
DA:351,0
DA:353,0
DA:355,0
DA:358,0
DA:370,0
DA:374,30
DA:378,30
DA:390,84
DA:391,84
DA:392,0
DA:394,84
DA:405,39
DA:408,39
DA:410,39
DA:412,30
DA:413,30
DA:414,30
DA:446,30
DA:449,30
DA:450,30
DA:451,30
DA:484,60
DA:704,9
DA:709,12
DA:710,12
DA:712,0
DA:713,0
DA:714,0
DA:715,0
DA:716,0
DA:717,0
DA:718,0
DA:719,0
DA:723,12
DA:724,12
DA:738,9
DA:739,9
DA:740,0
DA:741,0
DA:904,9
DA:905,9
DA:911,9
DA:912,9
DA:913,9
LF:97
LH:64
end_of_record
TN:
SF:/home/p/Рабочий стол/Policaika/workspace/reports/lab05/third-party/gtest/googletest/include/gtest/gtest-message.h
FNF:0
FNH:0
LF:0
LH:0
end_of_record
TN:
SF:/home/p/Рабочий стол/Policaika/workspace/reports/lab05/third-party/gtest/googletest/include/gtest/gtest-printers.h
FNL:0,1070,1072
FNA:0,0,_ZN7testing8internal21UniversalTersePrinterIiE5PrintERKiPSo
FNL:1,1189,1194
FNA:1,0,_ZN7testing8internal14UniversalPrintISt5tupleIJEEEEvRKT_PSo
FNA:1,0,_ZN7testing8internal14UniversalPrintISt5tupleIJiEEEEvRKT_PSo
FNA:1,0,_ZN7testing8internal14UniversalPrintIiEEvRKT_PSo
FNL:2,1229,1233
FNA:2,0,_ZN7testing13PrintToStringIiEENSt7__cxx1112basic_stringIcSt11char_traitsIcESaIcEEERKT_
FNL:3,252,257
FNA:3,0,_ZN7testing8internal52internal_stream_operator_without_lexical_name_lookup13StreamPrinter10PrintValueIivEEDTcvvlsdefp0_fp_ERKT_PSo
FNL:4,356,367
FNA:4,0,_ZN7testing8internal17PrintWithFallbackIiEEvRKT_PSo
FNL:5,387,389
FNA:5,0,_ZN7testing8internal19FormatForComparisonIiiE6FormatB5cxx11ERKi
FNL:6,467,470
FNA:6,0,_ZN7testing8internal33FormatForComparisonFailureMessageIiiEENSt7__cxx1112basic_stringIcSt11char_traitsIcESaIcEEERKT_RKT0_
FNL:7,494,496
FNA:7,0,_ZN7testing8internal7PrintToIiEEvRKT_PSo
FNL:8,854,855
FNA:8,0,_ZN7testing8internal12PrintTupleToISt5tupleIJEEEEvRKT_St17integral_constantImLm0EEPSo
FNA:8,0,_ZN7testing8internal12PrintTupleToISt5tupleIJiEEEEvRKT_St17integral_constantImLm0EEPSo
FNL:9,858,868
FNA:9,0,_ZN7testing8internal12PrintTupleToISt5tupleIJiEELm1EEEvRKT_St17integral_constantImXT0_EEPSo
FNL:10,871,875
FNA:10,0,_ZN7testing8internal7PrintToIJEEEvRKSt5tupleIJDpT_EEPSo
FNA:10,0,_ZN7testing8internal7PrintToIJiEEEvRKSt5tupleIJDpT_EEPSo
FNL:11,901,911
FNA:11,0,_ZN7testing8internal16UniversalPrinterISt5tupleIJEEE5PrintERKS3_PSo
FNA:11,0,_ZN7testing8internal16UniversalPrinterISt5tupleIJiEEE5PrintERKS3_PSo
FNA:11,0,_ZN7testing8internal16UniversalPrinterIiE5PrintERKiPSo
FNF:12
FNH:0
DA:252,0
DA:256,0
DA:257,0
DA:356,0
DA:366,0
DA:367,0
DA:387,0
DA:388,0
DA:467,0
DA:469,0
DA:494,0
DA:495,0
DA:496,0
DA:854,0
DA:855,0
DA:858,0
DA:860,0
DA:866,0
DA:867,0
DA:868,0
DA:871,0
DA:872,0
DA:873,0
DA:874,0
DA:875,0
DA:901,0
DA:910,0
DA:911,0
DA:1070,0
DA:1071,0
DA:1072,0
DA:1189,0
DA:1193,0
DA:1194,0
DA:1229,0
DA:1230,0
DA:1231,0
DA:1232,0
DA:1233,0
LF:39
LH:0
end_of_record
TN:
SF:/home/p/Рабочий стол/Policaika/workspace/reports/lab05/third-party/gtest/googletest/include/gtest/gtest.h
FNL:0,1379,1385
FNA:0,0,_ZN7testing8internal18CmpHelperEQFailureIiiEENS_15AssertionResultEPKcS4_RKT_RKT0_
FNL:1,1396,1404
FNA:1,15,_ZN7testing8internal11CmpHelperEQIiiEENS_15AssertionResultEPKcS4_RKT_RKT0_
FNL:2,1415,1419
FNA:2,15,_ZN7testing8internal8EqHelper7CompareIiiLPv0EEENS_15AssertionResultEPKcS6_RKT_RKT0_
FNL:3,260,260
FNA:3,0,_ZN7testing4Test14SetUpTestSuiteEv
FNL:4,268,268
FNA:4,0,_ZN7testing4Test17TearDownTestSuiteEv
FNL:5,273,273
FNA:5,0,_ZN7testing4Test16TearDownTestCaseEv
FNL:6,274,274
FNA:6,0,_ZN7testing4Test13SetUpTestCaseEv
FNL:7,361,361
FNA:7,0,_ZN7testing4Test5SetupEv
FNF:8
FNH:2
DA:260,0
DA:268,0
DA:273,0
DA:274,0
DA:361,0
DA:1379,0
DA:1383,0
DA:1384,0
DA:1396,15
DA:1399,15
DA:1400,15
DA:1403,0
DA:1415,15
DA:1418,15
LF:14
LH:5
end_of_record
TN:
SF:/home/p/Рабочий стол/Policaika/workspace/reports/lab05/third-party/gtest/googletest/include/gtest/internal/gtest-internal.h
FNL:0,411,417
FNA:0,18,_ZN7testing8internal9GetTypeIdI14AccountFixtureEEPKvv
FNA:0,24,_ZN7testing8internal9GetTypeIdI18TransactionFixtureEEPKvv
FNL:1,430,430
FNA:1,0,_ZN7testing8internal15TestFactoryBaseD0Ev
FNA:1,42,_ZN7testing8internal15TestFactoryBaseD2Ev
FNL:2,437,437
FNA:2,42,_ZN7testing8internal15TestFactoryBaseC2Ev
FNL:3,449,449
FNA:3,3,_ZN7testing8internal15TestFactoryImplI25AccountFixture_GetID_TestE10CreateTestEv
FNA:3,3,_ZN7testing8internal15TestFactoryImplI27TransactionFixture_Fee_TestE10CreateTestEv
FNA:3,3,_ZN7testing8internal15TestFactoryImplI29AccountFixture_LockTwice_TestE10CreateTestEv
FNA:3,3,_ZN7testing8internal15TestFactoryImplI30AccountFixture_GetBalance_TestE10CreateTestEv
FNA:3,3,_ZN7testing8internal15TestFactoryImplI30TransactionFixture_SetFee_TestE10CreateTestEv
FNA:3,3,_ZN7testing8internal15TestFactoryImplI33AccountFixture_LockAndUnlock_TestE10CreateTestEv
FNA:3,3,_ZN7testing8internal15TestFactoryImplI33TransactionFixture_TooBigFee_TestE10CreateTestEv
FNA:3,3,_ZN7testing8internal15TestFactoryImplI36AccountFixture_ChangeBalanceBad_TestE10CreateTestEv
FNA:3,3,_ZN7testing8internal15TestFactoryImplI37AccountFixture_ChangeBalanceGood_TestE10CreateTestEv
FNA:3,3,_ZN7testing8internal15TestFactoryImplI41TransactionFixture_TooBigSumTransfer_TestE10CreateTestEv
FNA:3,3,_ZN7testing8internal15TestFactoryImplI42TransactionFixture_SuccessfulTransfer_TestE10CreateTestEv
FNA:3,3,_ZN7testing8internal15TestFactoryImplI42TransactionFixture_TransferToYourself_TestE10CreateTestEv
FNA:3,3,_ZN7testing8internal15TestFactoryImplI43TransactionFixture_NegativeSumTransfer_TestE10CreateTestEv
FNA:3,3,_ZN7testing8internal15TestFactoryImplI43TransactionFixture_TooSmallSumTransfer_TestE10CreateTestEv
FNL:4,470,471
FNA:4,42,_ZN7testing8internal12CodeLocationC2ENSt7__cxx1112basic_stringIcSt11char_traitsIcESaIcEEEi
FNL:5,483,486
FNA:5,168,_ZN7testing8internal19GetNotDefaultOrNullEPFvvES2_
FNL:6,498,517
FNA:6,18,_ZN7testing8internal16SuiteApiResolverI14AccountFixtureE19GetSetUpCaseOrSuiteEPKci
FNA:6,24,_ZN7testing8internal16SuiteApiResolverI18TransactionFixtureE19GetSetUpCaseOrSuiteEPKci
FNL:7,519,538
FNA:7,18,_ZN7testing8internal16SuiteApiResolverI14AccountFixtureE22GetTearDownCaseOrSuiteEPKci
FNA:7,24,_ZN7testing8internal16SuiteApiResolverI18TransactionFixtureE22GetTearDownCaseOrSuiteEPKci
FNL:8,830,830
FNA:8,18,_ZN7testing8internal14TrueWithStringC2Ev
FNL:9,833,833
FNA:9,18,_ZNK7testing8internal14TrueWithStringcvbEv
FNF:10
FNH:10
DA:411,42
DA:416,42
DA:430,42
DA:437,42
DA:449,84
DA:470,42
DA:471,84
DA:483,168
DA:485,168
DA:498,42
DA:502,42
DA:504,42
DA:506,42
DA:509,0
DA:511,42
DA:519,42
DA:523,42
DA:525,42
DA:527,42
DA:530,0
DA:532,42
DA:830,18
DA:833,18
LF:23
LH:21
end_of_record
TN:
SF:/home/p/Рабочий стол/Policaika/workspace/reports/lab05/third-party/gtest/googletest/include/gtest/internal/gtest-port.h
FNL:0,1049,1049
FNA:0,0,_ZN7testing8internal8GTestLog9GetStreamEv
FNL:1,1147,1149
FNA:1,15,_ZN7testing8internal13ImplicitCast_IiEET_S2_
FNL:2,1157,1164
FNA:2,18,_ZN7testing8internal27CheckedDowncastToActualTypeINS0_11ThreadLocalIPNS_8SequenceEE11ValueHolderENS0_26ThreadLocalValueHolderBaseEEEPT_PT0_
FNL:3,1686,1690
FNA:3,1092,_ZN7testing8internal9MutexBase4lockEv
FNL:4,1693,1700
FNA:4,1092,_ZN7testing8internal9MutexBase6unlockEv
FNL:5,1704,1707
FNA:5,954,_ZNK7testing8internal9MutexBase10AssertHeldEv
FNL:6,1761,1761
FNA:6,708,_ZN7testing8internal14GTestMutexLockC2ERNS0_9MutexBaseE
FNL:7,1762,1762
FNA:7,708,_ZN7testing8internal14GTestMutexLockD2Ev
FNL:8,1810,1810
FNA:8,21,_ZNK7testing8internal11ThreadLocalIPNS_8SequenceEE7pointerEv
FNL:9,1811,1811
FNA:9,21,_ZNK7testing8internal11ThreadLocalIPNS_8SequenceEE3getEv
FNL:10,1821,1821
FNA:10,21,_ZN7testing8internal11ThreadLocalIPNS_8SequenceEE11ValueHolder7pointerEv
FNL:11,1838,1849
FNA:11,21,_ZNK7testing8internal11ThreadLocalIPNS_8SequenceEE16GetOrCreateValueEv
FNF:12
FNH:11
DA:1049,0
DA:1147,15
DA:1148,15
DA:1157,18
DA:1161,18
DA:1163,18
DA:1686,1092
DA:1687,1092
DA:1688,1092
DA:1689,1092
DA:1690,1092
DA:1693,1092
DA:1698,1092
DA:1699,1092
DA:1700,1092
DA:1704,954
DA:1705,954
DA:1706,0
DA:1707,954
DA:1761,708
DA:1762,708
DA:1810,21
DA:1811,21
DA:1821,21
DA:1838,21
DA:1840,21
DA:1841,21
DA:1842,18
DA:1845,3
DA:1846,3
DA:1847,3
DA:1848,3
LF:32
LH:30
end_of_record
TN:
SF:/home/p/Рабочий стол/Policaika/workspace/reports/lab05/third-party/gtest/googletest/include/gtest/internal/gtest-type-util.h
FNL:0,61,87
FNA:0,0,_ZN7testing8internal31CanonicalizeForStdLibVersioningENSt7__cxx1112basic_stringIcSt11char_traitsIcESaIcEEE
FNL:1,91,121
FNA:1,0,_ZN7testing8internal11GetTypeNameB5cxx11ERKSt9type_info
FNF:2
FNH:0
DA:61,0
DA:63,0
DA:64,0
DA:65,0
DA:67,0
DA:74,0
DA:75,0
DA:78,0
DA:79,0
DA:80,0
DA:83,0
DA:84,0
DA:86,0
DA:91,0
DA:92,0
DA:94,0
DA:100,0
DA:101,0
DA:102,0
DA:103,0
DA:121,0
LF:21
LH:0
end_of_record
TN:
SF:/usr/include/c++/15/bits/alloc_traits.h
FNF:0
FNH:0
DA:614,948
DA:649,807
DA:674,27
DA:680,27
DA:700,3
DA:712,19170
DA:726,168
DA:805,6
DA:819,6
DA:885,192
DA:1045,405
DA:1046,405
LF:12
LH:12
end_of_record
TN:
SF:/usr/include/c++/15/bits/allocated_ptr.h
FNL:0,100,103
FNA:0,3,_ZSt18__allocate_guardedISaISt23_Sp_counted_ptr_inplaceIN7testing10OnceActionIFivEEESaIvELN9__gnu_cxx12_Lock_policyE2EEEESt15__allocated_ptrIT_ERSB_
FNA:0,3,_ZSt18__allocate_guardedISaISt23_Sp_counted_ptr_inplaceIN7testing8internal12ReturnActionIiE4ImplIiEESaIvELN9__gnu_cxx12_Lock_policyE2EEEESt15__allocated_ptrIT_ERSD_
FNL:1,53,55
FNA:1,6,_ZNSt15__allocated_ptrISaISt23_Sp_counted_ptr_inplaceIN7testing10OnceActionIFivEEESaIvELN9__gnu_cxx12_Lock_policyE2EEEEC2ERS9_PS8_
FNA:1,6,_ZNSt15__allocated_ptrISaISt23_Sp_counted_ptr_inplaceIN7testing8internal12ReturnActionIiE4ImplIiEESaIvELN9__gnu_cxx12_Lock_policyE2EEEEC2ERSB_PSA_
FNL:2,71,75
FNA:2,6,_ZNSt15__allocated_ptrISaISt23_Sp_counted_ptr_inplaceIN7testing10OnceActionIFivEEESaIvELN9__gnu_cxx12_Lock_policyE2EEEED2Ev
FNA:2,6,_ZNSt15__allocated_ptrISaISt23_Sp_counted_ptr_inplaceIN7testing8internal12ReturnActionIiE4ImplIiEESaIvELN9__gnu_cxx12_Lock_policyE2EEEED2Ev
FNL:3,79,83
FNA:3,3,_ZNSt15__allocated_ptrISaISt23_Sp_counted_ptr_inplaceIN7testing10OnceActionIFivEEESaIvELN9__gnu_cxx12_Lock_policyE2EEEEaSEDn
FNA:3,3,_ZNSt15__allocated_ptrISaISt23_Sp_counted_ptr_inplaceIN7testing8internal12ReturnActionIiE4ImplIiEESaIvELN9__gnu_cxx12_Lock_policyE2EEEEaSEDn
FNL:4,88,88
FNA:4,3,_ZNKSt15__allocated_ptrISaISt23_Sp_counted_ptr_inplaceIN7testing10OnceActionIFivEEESaIvELN9__gnu_cxx12_Lock_policyE2EEEE3getEv
FNA:4,3,_ZNKSt15__allocated_ptrISaISt23_Sp_counted_ptr_inplaceIN7testing8internal12ReturnActionIiE4ImplIiEESaIvELN9__gnu_cxx12_Lock_policyE2EEEE3getEv
FNF:5
FNH:5
DA:53,24
DA:54,12
DA:55,12
DA:71,12
DA:73,12
DA:74,6
DA:75,12
DA:79,6
DA:81,6
DA:82,6
DA:88,12
DA:100,6
DA:102,6
LF:13
LH:13
end_of_record
TN:
SF:/usr/include/c++/15/bits/allocator.h
FNF:0
FNH:0
DA:168,1104
DA:173,2025
DA:183,12
DA:189,981
DA:222,192
LF:5
LH:5
end_of_record
TN:
SF:/usr/include/c++/15/bits/atomic_base.h
FNF:0
FNH:0
DA:631,0
DA:641,0
LF:2
LH:0
end_of_record
TN:
SF:/usr/include/c++/15/bits/basic_string.h
FNL:0,1036,1037
FNA:0,0,_ZNKSt7__cxx1112basic_stringIcSt11char_traitsIcESaIcEEcvSt17basic_string_viewIcS2_EEv
FNL:1,1163,1169
FNA:1,11559,_ZNKSt7__cxx1112basic_stringIcSt11char_traitsIcESaIcEE4sizeEv
FNL:2,1175,1176
FNA:2,4560,_ZNKSt7__cxx1112basic_stringIcSt11char_traitsIcESaIcEE6lengthEv
FNL:3,1181,1187
FNA:3,19122,_ZNKSt7__cxx1112basic_stringIcSt11char_traitsIcESaIcEE8max_sizeEv
FNL:4,1277,1284
FNA:4,5445,_ZNKSt7__cxx1112basic_stringIcSt11char_traitsIcESaIcEE8capacityEv
FNL:5,1331,1332
FNA:5,90,_ZNKSt7__cxx1112basic_stringIcSt11char_traitsIcESaIcEE5emptyEv
FNL:6,140,153
FNA:6,918,_ZNSt7__cxx1112basic_stringIcSt11char_traitsIcESaIcEE11_S_allocateERS3_m
FNL:7,1477,1478
FNA:7,0,_ZNSt7__cxx1112basic_stringIcSt11char_traitsIcESaIcEEpLERKS4_
FNL:8,1487,1488
FNA:8,0,_ZNSt7__cxx1112basic_stringIcSt11char_traitsIcESaIcEEpLEPKc
FNL:9,1535,1536
FNA:9,66,_ZNSt7__cxx1112basic_stringIcSt11char_traitsIcESaIcEE6appendERKS4_
FNL:10,1566,1571
FNA:10,312,_ZNSt7__cxx1112basic_stringIcSt11char_traitsIcESaIcEE6appendEPKcm
FNL:11,1580,1586
FNA:11,159,_ZNSt7__cxx1112basic_stringIcSt11char_traitsIcESaIcEE6appendEPKc
FNL:12,1844,1849
FNA:12,24,_ZNSt7__cxx1112basic_stringIcSt11char_traitsIcESaIcEE6assignEPKc
FNL:13,204,205
FNA:13,525,_ZNSt7__cxx1112basic_stringIcSt11char_traitsIcESaIcEE12_Alloc_hiderC2EPcRKS3_
FNL:14,208,209
FNA:14,1209,_ZNSt7__cxx1112basic_stringIcSt11char_traitsIcESaIcEE12_Alloc_hiderC2EPcOS3_
FNL:15,2148,2150
FNA:15,0,_ZNSt7__cxx1112basic_stringIcSt11char_traitsIcESaIcEE6insertEmRKS4_
FNL:16,2216,2221
FNA:16,27,_ZNSt7__cxx1112basic_stringIcSt11char_traitsIcESaIcEE6insertEmPKc
FNL:17,228,229
FNA:17,2163,_ZNSt7__cxx1112basic_stringIcSt11char_traitsIcESaIcEE7_M_dataEPc
FNL:18,2323,2331
FNA:18,0,_ZNSt7__cxx1112basic_stringIcSt11char_traitsIcESaIcEE5eraseEmm
FNL:19,233,234
FNA:19,7239,_ZNSt7__cxx1112basic_stringIcSt11char_traitsIcESaIcEE9_M_lengthEm
FNL:20,238,239
FNA:20,26115,_ZNKSt7__cxx1112basic_stringIcSt11char_traitsIcESaIcEE7_M_dataEv
FNL:21,243,250
FNA:21,2310,_ZNSt7__cxx1112basic_stringIcSt11char_traitsIcESaIcEE13_M_local_dataEv
FNL:22,2458,2464
FNA:22,27,_ZNSt7__cxx1112basic_stringIcSt11char_traitsIcESaIcEE7replaceEmmPKcm
FNL:23,2509,2511
FNA:23,0,_ZNSt7__cxx1112basic_stringIcSt11char_traitsIcESaIcEE7replaceEmmmc
FNL:24,254,261
FNA:24,8946,_ZNKSt7__cxx1112basic_stringIcSt11char_traitsIcESaIcEE13_M_local_dataEv
FNL:25,265,266
FNA:25,1446,_ZNSt7__cxx1112basic_stringIcSt11char_traitsIcESaIcEE11_M_capacityEm
FNL:26,270,274
FNA:26,6336,_ZNSt7__cxx1112basic_stringIcSt11char_traitsIcESaIcEE13_M_set_lengthEm
FNL:27,278,287
FNA:27,8946,_ZNKSt7__cxx1112basic_stringIcSt11char_traitsIcESaIcEE11_M_is_localEv
FNL:28,2873,2874
FNA:28,3096,_ZNKSt7__cxx1112basic_stringIcSt11char_traitsIcESaIcEE5c_strEv
FNL:29,2886,2887
FNA:29,264,_ZNKSt7__cxx1112basic_stringIcSt11char_traitsIcESaIcEE4dataEv
FNL:30,2907,2908
FNA:30,123,_ZNKSt7__cxx1112basic_stringIcSt11char_traitsIcESaIcEE13get_allocatorEv
FNL:31,296,300
FNA:31,2637,_ZNSt7__cxx1112basic_stringIcSt11char_traitsIcESaIcEE10_M_disposeEv
FNL:32,2973,2977
FNA:32,0,_ZNKSt7__cxx1112basic_stringIcSt11char_traitsIcESaIcEE4findEPKcm
FNL:33,304,305
FNA:33,777,_ZNSt7__cxx1112basic_stringIcSt11char_traitsIcESaIcEE10_M_destroyEm
FNL:34,359,360
FNA:34,2556,_ZNSt7__cxx1112basic_stringIcSt11char_traitsIcESaIcEE16_M_get_allocatorEv
FNL:35,364,365
FNA:35,19290,_ZNKSt7__cxx1112basic_stringIcSt11char_traitsIcESaIcEE16_M_get_allocatorEv
FNL:36,3659,3670
FNA:36,0,_ZNKSt7__cxx1112basic_stringIcSt11char_traitsIcESaIcEE7compareEmmPKc
FNL:37,3813,3826
FNA:37,123,_ZSt12__str_concatINSt7__cxx1112basic_stringIcSt11char_traitsIcESaIcEEEET_PKNS6_10value_typeENS6_9size_typeES9_SA_RKNS6_14allocator_typeE
FNL:38,3856,3864
FNA:38,0,_ZStplIcSt11char_traitsIcESaIcEENSt7__cxx1112basic_stringIT_T0_T1_EEPKS5_RKS8_
FNL:39,3892,3900
FNA:39,123,_ZStplIcSt11char_traitsIcESaIcEENSt7__cxx1112basic_stringIT_T0_T1_EERKS8_PKS5_
FNL:40,3936,3954
FNA:40,21,_ZStplIcSt11char_traitsIcESaIcEENSt7__cxx1112basic_stringIT_T0_T1_EEOS8_S9_
FNL:41,3959,3961
FNA:41,27,_ZStplIcSt11char_traitsIcESaIcEENSt7__cxx1112basic_stringIT_T0_T1_EEPKS5_OS8_
FNL:42,3973,3975
FNA:42,159,_ZStplIcSt11char_traitsIcESaIcEENSt7__cxx1112basic_stringIT_T0_T1_EEOS8_PKS5_
FNL:43,409,416
FNA:43,87,_ZNKSt7__cxx1112basic_stringIcSt11char_traitsIcESaIcEE8_M_checkEmPKc
FNL:44,420,424
FNA:44,924,_ZNKSt7__cxx1112basic_stringIcSt11char_traitsIcESaIcEE15_M_check_lengthEmmPKc
FNL:45,430,434
FNA:45,57,_ZNKSt7__cxx1112basic_stringIcSt11char_traitsIcESaIcEE8_M_limitEmm
FNL:46,438,442
FNA:46,288,_ZNKSt7__cxx1112basic_stringIcSt11char_traitsIcESaIcEE11_M_disjunctEPKc
FNL:47,448,454
FNA:47,2148,_ZNSt7__cxx1112basic_stringIcSt11char_traitsIcESaIcEE7_S_copyEPcPKcm
FNL:48,458,464
FNA:48,0,_ZNSt7__cxx1112basic_stringIcSt11char_traitsIcESaIcEE7_S_moveEPcPKcm
FNL:49,468,474
FNA:49,0,_ZNSt7__cxx1112basic_stringIcSt11char_traitsIcESaIcEE9_S_assignEPcmc
FNL:50,483,506
FNA:50,432,_ZNSt7__cxx1112basic_stringIcSt11char_traitsIcESaIcEE13_S_copy_charsIPKcEEvPcT_S9_
FNL:51,551,561
FNA:51,0,_ZNSt7__cxx1112basic_stringIcSt11char_traitsIcESaIcEE10_S_compareEmm
FNL:52,585,594
FNA:52,561,_ZNSt7__cxx1112basic_stringIcSt11char_traitsIcESaIcEEC2Ev
FNL:53,601,606
FNA:53,123,_ZNSt7__cxx1112basic_stringIcSt11char_traitsIcESaIcEEC2ERKS3_
FNL:54,613,618
FNA:54,45,_ZNSt7__cxx1112basic_stringIcSt11char_traitsIcESaIcEEC2ERKS4_
FNL:55,706,715
FNA:55,402,_ZNSt7__cxx1112basic_stringIcSt11char_traitsIcESaIcEEC2IS3_EEPKcRKS3_
FNL:56,742,763
FNA:56,573,_ZNSt7__cxx1112basic_stringIcSt11char_traitsIcESaIcEEC2EOS4_
FNL:57,895,896
FNA:57,1995,_ZNSt7__cxx1112basic_stringIcSt11char_traitsIcESaIcEED2Ev
FNL:58,915,916
FNA:58,24,_ZNSt7__cxx1112basic_stringIcSt11char_traitsIcESaIcEEaSEPKc
FNF:59
FNH:47
DA:140,918
DA:142,918
DA:152,918
DA:204,525
DA:205,525
DA:208,1209
DA:209,1209
DA:228,2163
DA:229,2163
DA:233,7239
DA:234,7239
DA:238,26115
DA:239,26115
DA:243,2310
DA:246,2310
DA:254,8946
DA:257,8946
DA:265,1446
DA:266,1446
DA:270,6336
DA:272,6336
DA:273,6336
DA:274,6336
DA:278,8946
DA:280,8946
DA:282,4026
DA:283,0
DA:284,4026
DA:286,4920
DA:296,2637
DA:298,2637
DA:299,777
DA:300,2637
DA:304,777
DA:305,777
DA:359,2556
DA:360,2556
DA:364,19290
DA:365,19290
DA:378,513
DA:388,573
DA:409,87
DA:411,87
DA:412,0
DA:415,87
DA:420,924
DA:422,924
DA:423,0
DA:424,924
DA:430,57
DA:432,57
DA:433,57
DA:438,288
DA:440,288
DA:441,288
DA:448,2148
DA:450,2148
DA:451,690
DA:453,1458
DA:454,2148
DA:458,0
DA:460,0
DA:461,0
DA:463,0
DA:464,0
DA:468,0
DA:470,0
DA:471,0
DA:473,0
DA:474,0
DA:483,432
DA:489,864
DA:506,432
DA:551,0
DA:553,0
DA:555,0
DA:556,0
DA:557,0
DA:558,0
DA:560,0
DA:585,561
DA:590,1683
DA:593,561
DA:594,561
DA:601,123
DA:602,123
DA:605,123
DA:606,123
DA:613,45
DA:614,45
DA:615,45
DA:617,45
DA:618,45
DA:706,402
DA:707,402
DA:710,402
DA:711,0
DA:713,402
DA:714,402
DA:715,402
DA:742,573
DA:743,1146
DA:745,573
DA:748,189
DA:749,189
DA:753,384
DA:754,384
DA:760,573
DA:761,573
DA:762,573
DA:763,573
DA:895,1995
DA:896,1995
DA:915,24
DA:916,24
DA:1036,0
DA:1037,0
DA:1163,11559
DA:1165,11559
DA:1166,11559
DA:1167,0
DA:1168,11559
DA:1175,4560
DA:1176,4560
DA:1181,19122
DA:1183,19122
DA:1185,19122
DA:1186,19122
DA:1277,5445
DA:1279,5445
DA:1281,5445
DA:1282,0
DA:1283,5445
DA:1331,90
DA:1332,90
DA:1477,0
DA:1478,0
DA:1487,0
DA:1488,0
DA:1535,66
DA:1536,66
DA:1566,312
DA:1569,312
DA:1570,312
DA:1580,159
DA:1583,159
DA:1584,159
DA:1585,159
DA:1844,24
DA:1847,24
DA:1848,24
DA:2148,0
DA:2149,0
DA:2150,0
DA:2216,27
DA:2219,27
DA:2220,27
DA:2323,0
DA:2325,0
DA:2326,0
DA:2327,0
DA:2328,0
DA:2329,0
DA:2330,0
DA:2458,27
DA:2462,27
DA:2463,27
DA:2509,0
DA:2510,0
DA:2511,0
DA:2873,3096
DA:2874,3096
DA:2886,264
DA:2887,264
DA:2907,123
DA:2908,246
DA:2973,0
DA:2976,0
DA:3659,0
DA:3662,0
DA:3663,0
DA:3664,0
DA:3665,0
DA:3666,0
DA:3667,0
DA:3668,0
DA:3669,0
DA:3813,123
DA:3821,123
DA:3822,123
DA:3823,123
DA:3824,123
DA:3825,123
DA:3826,0
DA:3856,0
DA:3863,0
DA:3892,123
DA:3899,246
DA:3936,21
DA:3941,21
DA:3943,21
DA:3946,21
DA:3949,21
DA:3950,21
DA:3951,0
DA:3953,42
DA:3959,27
DA:3961,54
DA:3973,159
DA:3975,318
LF:210
LH:153
end_of_record
TN:
SF:/usr/include/c++/15/bits/basic_string.tcc
FNL:0,143,165
FNA:0,918,_ZNSt7__cxx1112basic_stringIcSt11char_traitsIcESaIcEE9_M_createERmm
FNL:1,227,258
FNA:1,432,_ZNSt7__cxx1112basic_stringIcSt11char_traitsIcESaIcEE12_M_constructIPKcEEvT_S8_St20forward_iterator_tag
FNL:2,245,245
FNA:2,432,_ZZNSt7__cxx1112basic_stringIcSt11char_traitsIcESaIcEE12_M_constructIPKcEEvT_S8_St20forward_iterator_tagEN6_GuardC2EPS4_
FNL:3,248,248
FNA:3,432,_ZZNSt7__cxx1112basic_stringIcSt11char_traitsIcESaIcEE12_M_constructIPKcEEvT_S8_St20forward_iterator_tagEN6_GuardD2Ev
FNL:4,286,303
FNA:4,45,_ZNSt7__cxx1112basic_stringIcSt11char_traitsIcESaIcEE12_M_constructILb1EEEvPKcm
FNL:5,335,351
FNA:5,504,_ZNSt7__cxx1112basic_stringIcSt11char_traitsIcESaIcEE7reserveEm
FNL:6,356,376
FNA:6,258,_ZNSt7__cxx1112basic_stringIcSt11char_traitsIcESaIcEE9_M_mutateEmmPKcm
FNL:7,381,390
FNA:7,0,_ZNSt7__cxx1112basic_stringIcSt11char_traitsIcESaIcEE8_M_eraseEmm
FNL:8,444,459
FNA:8,471,_ZNSt7__cxx1112basic_stringIcSt11char_traitsIcESaIcEE9_M_appendEPKcm
FNL:9,481,506
FNA:9,0,_ZNSt7__cxx1112basic_stringIcSt11char_traitsIcESaIcEE14_M_replace_auxEmmmc
FNL:10,510,537
FNA:10,0,_ZNSt7__cxx1112basic_stringIcSt11char_traitsIcESaIcEE15_M_replace_coldEPcmPKcmm
FNL:11,542,583
FNA:11,453,_ZNSt7__cxx1112basic_stringIcSt11char_traitsIcESaIcEE10_M_replaceEmmPKcm
FNL:12,657,689
FNA:12,0,_ZNKSt7__cxx1112basic_stringIcSt11char_traitsIcESaIcEE4findEPKcmm
FNF:13
FNH:9
DA:143,918
DA:148,918
DA:149,0
DA:154,918
DA:156,276
DA:158,276
DA:159,0
DA:164,918
DA:227,432
DA:231,432
DA:233,432
DA:235,246
DA:236,246
DA:245,432
DA:248,432
DA:251,432
DA:253,432
DA:255,432
DA:257,432
DA:258,432
DA:286,45
DA:289,45
DA:291,30
DA:292,30
DA:298,45
DA:300,45
DA:303,45
DA:335,504
DA:338,504
DA:343,504
DA:344,120
DA:346,384
DA:347,384
DA:348,384
DA:349,384
DA:350,384
DA:356,258
DA:360,258
DA:362,258
DA:363,258
DA:365,258
DA:366,93
DA:367,258
DA:368,258
DA:369,258
DA:370,27
DA:371,27
DA:373,258
DA:374,258
DA:375,258
DA:376,258
DA:381,0
DA:384,0
DA:386,0
DA:387,0
DA:389,0
DA:390,0
DA:444,471
DA:447,471
DA:449,471
DA:451,378
DA:452,369
DA:455,93
DA:457,471
DA:458,471
DA:481,0
DA:485,0
DA:487,0
DA:488,0
DA:490,0
DA:492,0
DA:494,0
DA:495,0
DA:496,0
DA:499,0
DA:501,0
DA:502,0
DA:504,0
DA:505,0
DA:510,0
DA:515,0
DA:516,0
DA:517,0
DA:518,0
DA:519,0
DA:521,0
DA:522,0
DA:523,0
DA:527,0
DA:528,0
DA:532,0
DA:533,0
DA:534,0
DA:537,0
DA:542,453
DA:546,453
DA:548,453
DA:549,453
DA:551,453
DA:553,288
DA:555,288
DA:568,288
DA:570,288
DA:571,0
DA:572,288
DA:573,288
DA:576,0
DA:579,165
DA:581,453
DA:582,453
DA:657,0
DA:662,0
DA:664,0
DA:665,0
DA:666,0
DA:667,0
DA:669,0
DA:670,0
DA:671,0
DA:672,0
DA:673,0
DA:675,0
DA:678,0
DA:679,0
DA:680,0
DA:684,0
DA:685,0
DA:686,0
DA:688,0
LF:129
LH:71
end_of_record
TN:
SF:/usr/include/c++/15/bits/char_traits.h
FNL:0,138,139
FNA:0,0,_ZN9__gnu_cxx11char_traitsIcE2eqERKcS3_
FNL:1,201,208
FNA:1,0,_ZN9__gnu_cxx11char_traitsIcE6lengthEPKc
FNL:2,212,219
FNA:2,0,_ZN9__gnu_cxx11char_traitsIcE4findEPKcmRS2_
FNL:3,345,353
FNA:3,10239,_ZNSt11char_traitsIcE6assignERcRKc
FNL:4,360,365
FNA:4,0,_ZNSt11char_traitsIcE2ltERKcS2_
FNL:5,368,384
FNA:5,36,_ZNSt11char_traitsIcE7compareEPKcS2_m
FNL:6,387,394
FNA:6,891,_ZNSt11char_traitsIcE6lengthEPKc
FNL:7,397,406
FNA:7,30,_ZNSt11char_traitsIcE4findEPKcmRS1_
FNL:8,409,418
FNA:8,0,_ZNSt11char_traitsIcE4moveEPcPKcm
FNL:9,421,430
FNA:9,1788,_ZNSt11char_traitsIcE4copyEPcPKcm
FNL:10,433,442
FNA:10,0,_ZNSt11char_traitsIcE6assignEPcmc
FNF:11
FNH:5
DA:138,0
DA:139,0
DA:201,0
DA:204,0
DA:205,0
DA:206,0
DA:207,0
DA:212,0
DA:215,0
DA:216,0
DA:217,0
DA:218,0
DA:345,10239
DA:352,10239
DA:353,10239
DA:360,0
DA:363,0
DA:364,0
DA:368,36
DA:370,36
DA:371,0
DA:373,36
DA:375,0
DA:376,0
DA:377,0
DA:378,0
DA:379,0
DA:380,0
DA:383,36
DA:387,891
DA:390,891
DA:391,0
DA:393,891
DA:397,30
DA:399,30
DA:400,0
DA:402,30
DA:403,0
DA:405,30
DA:409,0
DA:411,0
DA:412,0
DA:417,0
DA:421,1788
DA:423,1788
DA:424,51
DA:429,1737
DA:433,0
DA:435,0
DA:436,0
DA:441,0
LF:51
LH:18
end_of_record
TN:
SF:/usr/include/c++/15/bits/invoke.h
FNL:0,106,119
FNA:0,3,_ZSt10__invoke_rIiRN7testing10OnceActionIFivEE18StdFunctionAdaptorINS0_8internal12ReturnActionIiE4ImplIiEEEEJEENSt9enable_ifIX16is_invocable_r_vIT_T0_JDpT1_EEESD_E4typeEOSE_DpOSF_
FNA:0,15,_ZSt10__invoke_rIiRN7testing8internal12ReturnActionIiE4ImplIiEEJEENSt9enable_ifIX16is_invocable_r_vIT_T0_JDpT1_EEES8_E4typeEOS9_DpOSA_
FNA:0,3,_ZSt10__invoke_rIiRN7testing8internal16TypedExpectationIFivEE13ActionAdaptorEJEENSt9enable_ifIX16is_invocable_r_vIT_T0_JDpT1_EEES8_E4typeEOS9_DpOSA_
FNL:1,62,63
FNA:1,3,_ZSt13__invoke_implIiRN7testing10OnceActionIFivEE18StdFunctionAdaptorINS0_8internal12ReturnActionIiE4ImplIiEEEEJEET_St14__invoke_otherOT0_DpOT1_
FNA:1,15,_ZSt13__invoke_implIiRN7testing8internal12ReturnActionIiE4ImplIiEEJEET_St14__invoke_otherOT0_DpOT1_
FNA:1,3,_ZSt13__invoke_implIiRN7testing8internal16TypedExpectationIFivEE13ActionAdaptorEJEET_St14__invoke_otherOT0_DpOT1_
FNF:2
FNH:2
DA:62,21
DA:63,21
DA:106,21
DA:116,21
DA:118,21
LF:5
LH:5
end_of_record
TN:
SF:/usr/include/c++/15/bits/move.h
FNL:0,227,238
FNA:0,27,_ZSt4swapIPFbRSt9_Any_dataRKS0_St18_Manager_operationEENSt9enable_ifIXsrSt6__and_IJSt6__not_ISt15__is_tuple_likeIT_EESt21is_move_constructibleISB_ESt18is_move_assignableISB_EEE5valueEvE4typeERSB_SL_
FNA:0,27,_ZSt4swapIPFiRKSt9_Any_dataEENSt9enable_ifIXsrSt6__and_IJSt6__not_ISt15__is_tuple_likeIT_EESt21is_move_constructibleIS9_ESt18is_move_assignableIS9_EEE5valueEvE4typeERS9_SJ_
FNA:0,27,_ZSt4swapISt9_Any_dataENSt9enable_ifIXsrSt6__and_IJSt6__not_ISt15__is_tuple_likeIT_EESt21is_move_constructibleIS5_ESt18is_move_assignableIS5_EEE5valueEvE4typeERS5_SF_
FNF:1
FNH:1
DA:53,11265
DA:73,690
DA:139,2451
DA:177,11256
DA:227,81
DA:235,81
DA:236,81
DA:237,81
DA:238,81
LF:9
LH:9
end_of_record
TN:
SF:/usr/include/c++/15/bits/new_allocator.h
FNL:0,104,104
FNA:0,405,_ZNSt15__new_allocatorIPKvED2Ev
FNA:0,21,_ZNSt15__new_allocatorISt13_Rb_tree_nodeIN7testing11ExpectationEEED2Ev
FNA:0,6,_ZNSt15__new_allocatorISt23_Sp_counted_ptr_inplaceIN7testing10OnceActionIFivEEESaIvELN9__gnu_cxx12_Lock_policyE2EEED2Ev
FNA:0,6,_ZNSt15__new_allocatorISt23_Sp_counted_ptr_inplaceIN7testing8internal12ReturnActionIiE4ImplIiEESaIvELN9__gnu_cxx12_Lock_policyE2EEED2Ev
FNA:0,3279,_ZNSt15__new_allocatorIcED2Ev
FNL:1,126,152
FNA:1,3,_ZNSt15__new_allocatorIPKvE8allocateEmS1_
FNA:1,21,_ZNSt15__new_allocatorISt10shared_ptrIN7testing8internal15ExpectationBaseEEE8allocateEmPKv
FNA:1,3,_ZNSt15__new_allocatorISt23_Sp_counted_ptr_inplaceIN7testing10OnceActionIFivEEESaIvELN9__gnu_cxx12_Lock_policyE2EEE8allocateEmPKv
FNA:1,3,_ZNSt15__new_allocatorISt23_Sp_counted_ptr_inplaceIN7testing8internal12ReturnActionIiE4ImplIiEESaIvELN9__gnu_cxx12_Lock_policyE2EEE8allocateEmPKv
FNA:1,918,_ZNSt15__new_allocatorIcE8allocateEmPKv
FNL:2,156,173
FNA:2,3,_ZNSt15__new_allocatorIPKvE10deallocateEPS1_m
FNA:2,21,_ZNSt15__new_allocatorISt10shared_ptrIN7testing8internal15ExpectationBaseEEE10deallocateEPS4_m
FNA:2,0,_ZNSt15__new_allocatorISt13_Rb_tree_nodeIN7testing11ExpectationEEE10deallocateEPS3_m
FNA:2,3,_ZNSt15__new_allocatorISt23_Sp_counted_ptr_inplaceIN7testing10OnceActionIFivEEESaIvELN9__gnu_cxx12_Lock_policyE2EEE10deallocateEPS8_m
FNA:2,3,_ZNSt15__new_allocatorISt23_Sp_counted_ptr_inplaceIN7testing8internal12ReturnActionIiE4ImplIiEESaIvELN9__gnu_cxx12_Lock_policyE2EEE10deallocateEPSA_m
FNA:2,777,_ZNSt15__new_allocatorIcE10deallocateEPcm
FNF:3
FNH:3
DA:88,1116
DA:92,2025
DA:104,3717
DA:126,948
DA:134,948
DA:138,0
DA:139,0
DA:140,0
DA:151,948
DA:156,807
DA:172,807
DA:183,19170
DA:191,54
DA:198,3
DA:233,20118
LF:15
LH:12
end_of_record
TN:
SF:/usr/include/c++/15/bits/ptr_traits.h
FNL:0,134,135
FNA:0,8946,_ZNSt19__ptr_traits_ptr_toIPKcS0_Lb0EE10pointer_toERS0_
FNA:0,2310,_ZNSt19__ptr_traits_ptr_toIPccLb0EE10pointer_toERc
FNF:1
FNH:1
DA:134,11256
DA:135,11256
DA:211,30
LF:3
LH:3
end_of_record
TN:
SF:/usr/include/c++/15/bits/shared_ptr.h
FNL:0,1003,1009
FNA:0,3,_ZSt11make_sharedIN7testing10OnceActionIFivEEEJS3_EESt10shared_ptrINSt9enable_ifIXntsrSt8is_arrayIT_E5valueES7_E4typeEEDpOT0_
FNA:0,3,_ZSt11make_sharedIN7testing8internal12ReturnActionIiE4ImplIiEEJS5_EESt10shared_ptrINSt9enable_ifIXntsrSt8is_arrayIT_E5valueES9_E4typeEEDpOT0_
FNL:1,203,203
FNA:1,3,_ZNSt10shared_ptrIN7testing10OnceActionIFivEEEEC2ERKS4_
FNA:1,42,_ZNSt10shared_ptrIN7testing8internal12ReturnActionIiE4ImplIiE5StateEEC2ERKS7_
FNA:1,0,_ZNSt10shared_ptrIN7testing8internal12ReturnActionIiE4ImplIiEEEC2ERKS6_
FNA:1,21,_ZNSt10shared_ptrIN7testing8internal15ExpectationBaseEEC2ERKS3_
FNL:2,213,213
FNA:2,15,_ZNSt10shared_ptrIN7testing8internal12ReturnActionIiE4ImplIiE5StateEEC2IS6_vEEPT_
FNA:2,12,_ZNSt10shared_ptrIN7testing8internal15ExpectationBaseEEC2INS1_16TypedExpectationIFivEEEvEEPT_
FNA:2,9,_ZNSt10shared_ptrIN7testing8internal15ExpectationBaseEEC2INS1_16TypedExpectationIFviEEEvEEPT_
FNL:3,358,359
FNA:3,3,_ZNSt10shared_ptrIN7testing10OnceActionIFivEEEEC2EOS4_
FNA:3,3,_ZNSt10shared_ptrIN7testing8internal12ReturnActionIiE4ImplIiEEEC2EOS6_
FNA:3,3,_ZNSt10shared_ptrIN7testing8internal15ExpectationBaseEEC2EOS3_
FNL:4,413,413
FNA:4,24,_ZNSt10shared_ptrIKN7testing20CardinalityInterfaceEEaSERKS3_
FNL:5,462,464
FNA:5,3,_ZNSt10shared_ptrIN7testing10OnceActionIFivEEEEC2ISaIvEJS3_EEESt20_Sp_alloc_shared_tagIT_EDpOT0_
FNA:5,3,_ZNSt10shared_ptrIN7testing8internal12ReturnActionIiE4ImplIiEEEC2ISaIvEJS5_EEESt20_Sp_alloc_shared_tagIT_EDpOT0_
FNF:6
FNH:6
DA:203,66
DA:213,36
DA:358,9
DA:359,18
DA:413,24
DA:462,6
DA:463,12
DA:464,6
DA:1003,6
DA:1008,12
LF:10
LH:10
end_of_record
TN:
SF:/usr/include/c++/15/bits/shared_ptr_base.h
FNL:0,1066,1070
FNA:0,162,_ZNSt14__shared_countILN9__gnu_cxx12_Lock_policyE2EED2Ev
FNL:1,1072,1077
FNA:1,66,_ZNSt14__shared_countILN9__gnu_cxx12_Lock_policyE2EEC2ERKS2_
FNL:2,1080,1092
FNA:2,24,_ZNSt14__shared_countILN9__gnu_cxx12_Lock_policyE2EEaSERKS2_
FNL:3,1095,1100
FNA:3,9,_ZNSt14__shared_countILN9__gnu_cxx12_Lock_policyE2EE7_M_swapERS2_
FNL:4,128,129
FNA:4,87,_ZNSt16_Sp_counted_baseILN9__gnu_cxx12_Lock_policyE2EEC2Ev
FNL:5,132,133
FNA:5,0,_ZNSt16_Sp_counted_baseILN9__gnu_cxx12_Lock_policyE2EED0Ev
FNA:5,87,_ZNSt16_Sp_counted_baseILN9__gnu_cxx12_Lock_policyE2EED2Ev
FNL:6,1357,1358
FNA:6,3,_ZNKSt19__shared_ptr_accessIN7testing10OnceActionIFivEEELN9__gnu_cxx12_Lock_policyE2ELb0ELb0EEdeEv
FNA:6,3,_ZNKSt19__shared_ptr_accessIN7testing8internal12ReturnActionIiE4ImplIiEELN9__gnu_cxx12_Lock_policyE2ELb0ELb0EEdeEv
FNL:7,1361,1365
FNA:7,123,_ZNKSt19__shared_ptr_accessIKN7testing20CardinalityInterfaceELN9__gnu_cxx12_Lock_policyE2ELb0ELb0EEptEv
FNA:7,18,_ZNKSt19__shared_ptr_accessIN7testing8internal12ReturnActionIiE4ImplIiE5StateELN9__gnu_cxx12_Lock_policyE2ELb0ELb0EEptEv
FNA:7,0,_ZNKSt19__shared_ptr_accessIN7testing8internal15ExpectationBaseELN9__gnu_cxx12_Lock_policyE2ELb0ELb0EEptEv
FNL:8,1369,1370
FNA:8,123,_ZNKSt19__shared_ptr_accessIKN7testing20CardinalityInterfaceELN9__gnu_cxx12_Lock_policyE2ELb0ELb0EE6_M_getEv
FNA:8,3,_ZNKSt19__shared_ptr_accessIN7testing10OnceActionIFivEEELN9__gnu_cxx12_Lock_policyE2ELb0ELb0EE6_M_getEv
FNA:8,18,_ZNKSt19__shared_ptr_accessIN7testing8internal12ReturnActionIiE4ImplIiE5StateELN9__gnu_cxx12_Lock_policyE2ELb0ELb0EE6_M_getEv
FNA:8,3,_ZNKSt19__shared_ptr_accessIN7testing8internal12ReturnActionIiE4ImplIiEELN9__gnu_cxx12_Lock_policyE2ELb0ELb0EE6_M_getEv
FNA:8,0,_ZNKSt19__shared_ptr_accessIN7testing8internal15ExpectationBaseELN9__gnu_cxx12_Lock_policyE2ELb0ELb0EE6_M_getEv
FNL:9,142,143
FNA:9,0,_ZNSt16_Sp_counted_baseILN9__gnu_cxx12_Lock_policyE2EE10_M_destroyEv
FNL:10,1475,1481
FNA:10,15,_ZNSt12__shared_ptrIN7testing8internal12ReturnActionIiE4ImplIiE5StateELN9__gnu_cxx12_Lock_policyE2EEC2IS6_vEEPT_
FNA:10,12,_ZNSt12__shared_ptrIN7testing8internal15ExpectationBaseELN9__gnu_cxx12_Lock_policyE2EEC2INS1_16TypedExpectationIFivEEEvEEPT_
FNA:10,9,_ZNSt12__shared_ptrIN7testing8internal15ExpectationBaseELN9__gnu_cxx12_Lock_policyE2EEC2INS1_16TypedExpectationIFviEEEvEEPT_
FNL:11,150,151
FNA:11,90,_ZNSt16_Sp_counted_baseILN9__gnu_cxx12_Lock_policyE2EE15_M_add_ref_copyEv
FNL:12,1529,1529
FNA:12,3,_ZNSt12__shared_ptrIN7testing10OnceActionIFivEEELN9__gnu_cxx12_Lock_policyE2EEC2ERKS6_
FNA:12,42,_ZNSt12__shared_ptrIN7testing8internal12ReturnActionIiE4ImplIiE5StateELN9__gnu_cxx12_Lock_policyE2EEC2ERKS9_
FNA:12,0,_ZNSt12__shared_ptrIN7testing8internal12ReturnActionIiE4ImplIiEELN9__gnu_cxx12_Lock_policyE2EEC2ERKS8_
FNA:12,21,_ZNSt12__shared_ptrIN7testing8internal15ExpectationBaseELN9__gnu_cxx12_Lock_policyE2EEC2ERKS5_
FNL:13,1530,1530
FNA:13,24,_ZNSt12__shared_ptrIKN7testing20CardinalityInterfaceELN9__gnu_cxx12_Lock_policyE2EEaSERKS5_
FNL:14,1531,1531
FNA:14,45,_ZNSt12__shared_ptrIKN7testing20CardinalityInterfaceELN9__gnu_cxx12_Lock_policyE2EED2Ev
FNA:14,9,_ZNSt12__shared_ptrIN7testing10OnceActionIFivEEELN9__gnu_cxx12_Lock_policyE2EED2Ev
FNA:14,57,_ZNSt12__shared_ptrIN7testing8internal12ReturnActionIiE4ImplIiE5StateELN9__gnu_cxx12_Lock_policyE2EED2Ev
FNA:14,6,_ZNSt12__shared_ptrIN7testing8internal12ReturnActionIiE4ImplIiEELN9__gnu_cxx12_Lock_policyE2EED2Ev
FNA:14,45,_ZNSt12__shared_ptrIN7testing8internal15ExpectationBaseELN9__gnu_cxx12_Lock_policyE2EED2Ev
FNL:15,1538,1543
FNA:15,3,_ZNSt12__shared_ptrIN7testing10OnceActionIFivEEELN9__gnu_cxx12_Lock_policyE2EEC2EOS6_
FNA:15,3,_ZNSt12__shared_ptrIN7testing8internal12ReturnActionIiE4ImplIiEELN9__gnu_cxx12_Lock_policyE2EEC2EOS8_
FNA:15,3,_ZNSt12__shared_ptrIN7testing8internal15ExpectationBaseELN9__gnu_cxx12_Lock_policyE2EEC2EOS5_
FNL:16,1672,1673
FNA:16,123,_ZNKSt12__shared_ptrIKN7testing20CardinalityInterfaceELN9__gnu_cxx12_Lock_policyE2EE3getEv
FNA:16,3,_ZNKSt12__shared_ptrIN7testing10OnceActionIFivEEELN9__gnu_cxx12_Lock_policyE2EE3getEv
FNA:16,18,_ZNKSt12__shared_ptrIN7testing8internal12ReturnActionIiE4ImplIiE5StateELN9__gnu_cxx12_Lock_policyE2EE3getEv
FNA:16,3,_ZNKSt12__shared_ptrIN7testing8internal12ReturnActionIiE4ImplIiEELN9__gnu_cxx12_Lock_policyE2EE3getEv
FNA:16,51,_ZNKSt12__shared_ptrIN7testing8internal15ExpectationBaseELN9__gnu_cxx12_Lock_policyE2EE3getEv
FNL:17,171,192
FNA:17,0,_ZNSt16_Sp_counted_baseILN9__gnu_cxx12_Lock_policyE2EE19_M_release_last_useEv
FNL:18,1718,1720
FNA:18,3,_ZNSt12__shared_ptrIN7testing10OnceActionIFivEEELN9__gnu_cxx12_Lock_policyE2EEC2ISaIvEJS3_EEESt20_Sp_alloc_shared_tagIT_EDpOT0_
FNA:18,3,_ZNSt12__shared_ptrIN7testing8internal12ReturnActionIiE4ImplIiEELN9__gnu_cxx12_Lock_policyE2EEC2ISaIvEJS5_EEESt20_Sp_alloc_shared_tagIT_EDpOT0_
FNL:19,1772,1773
FNA:19,3,_ZNSt12__shared_ptrIN7testing10OnceActionIFivEEELN9__gnu_cxx12_Lock_policyE2EE31_M_enable_shared_from_this_withIS3_S3_EENSt9enable_ifIXntsrNS6_15__has_esft_baseIT0_vEE5valueEvE4typeEPT_
FNA:19,15,_ZNSt12__shared_ptrIN7testing8internal12ReturnActionIiE4ImplIiE5StateELN9__gnu_cxx12_Lock_policyE2EE31_M_enable_shared_from_this_withIS6_S6_EENSt9enable_ifIXntsrNS9_15__has_esft_baseIT0_vEE5valueEvE4typeEPT_
FNA:19,3,_ZNSt12__shared_ptrIN7testing8internal12ReturnActionIiE4ImplIiEELN9__gnu_cxx12_Lock_policyE2EE31_M_enable_shared_from_this_withIS5_S5_EENSt9enable_ifIXntsrNS8_15__has_esft_baseIT0_vEE5valueEvE4typeEPT_
FNA:19,12,_ZNSt12__shared_ptrIN7testing8internal15ExpectationBaseELN9__gnu_cxx12_Lock_policyE2EE31_M_enable_shared_from_this_withINS1_16TypedExpectationIFivEEES9_EENSt9enable_ifIXntsrNS5_15__has_esft_baseIT0_vEE5valueEvE4typeEPT_
FNA:19,9,_ZNSt12__shared_ptrIN7testing8internal15ExpectationBaseELN9__gnu_cxx12_Lock_policyE2EE31_M_enable_shared_from_this_withINS1_16TypedExpectationIFviEEES9_EENSt9enable_ifIXntsrNS5_15__has_esft_baseIT0_vEE5valueEvE4typeEPT_
FNL:20,197,198
FNA:20,0,_ZNSt16_Sp_counted_baseILN9__gnu_cxx12_Lock_policyE2EE24_M_release_last_use_coldEv
FNL:21,316,362
FNA:21,177,_ZNSt16_Sp_counted_baseILN9__gnu_cxx12_Lock_policyE2EE10_M_releaseEv
FNL:22,422,423
FNA:22,15,_ZNSt15_Sp_counted_ptrIPN7testing8internal12ReturnActionIiE4ImplIiE5StateELN9__gnu_cxx12_Lock_policyE2EEC2ES7_
FNA:22,12,_ZNSt15_Sp_counted_ptrIPN7testing8internal16TypedExpectationIFivEEELN9__gnu_cxx12_Lock_policyE2EEC2ES5_
FNA:22,9,_ZNSt15_Sp_counted_ptrIPN7testing8internal16TypedExpectationIFviEEELN9__gnu_cxx12_Lock_policyE2EEC2ES5_
FNL:23,426,427
FNA:23,15,_ZNSt15_Sp_counted_ptrIPN7testing8internal12ReturnActionIiE4ImplIiE5StateELN9__gnu_cxx12_Lock_policyE2EE10_M_disposeEv
FNA:23,12,_ZNSt15_Sp_counted_ptrIPN7testing8internal16TypedExpectationIFivEEELN9__gnu_cxx12_Lock_policyE2EE10_M_disposeEv
FNA:23,9,_ZNSt15_Sp_counted_ptrIPN7testing8internal16TypedExpectationIFviEEELN9__gnu_cxx12_Lock_policyE2EE10_M_disposeEv
FNL:24,430,431
FNA:24,15,_ZNSt15_Sp_counted_ptrIPN7testing8internal12ReturnActionIiE4ImplIiE5StateELN9__gnu_cxx12_Lock_policyE2EE10_M_destroyEv
FNA:24,12,_ZNSt15_Sp_counted_ptrIPN7testing8internal16TypedExpectationIFivEEELN9__gnu_cxx12_Lock_policyE2EE10_M_destroyEv
FNA:24,9,_ZNSt15_Sp_counted_ptrIPN7testing8internal16TypedExpectationIFviEEELN9__gnu_cxx12_Lock_policyE2EE10_M_destroyEv
FNL:25,434,435
FNA:25,0,_ZNSt15_Sp_counted_ptrIPN7testing8internal12ReturnActionIiE4ImplIiE5StateELN9__gnu_cxx12_Lock_policyE2EE14_M_get_deleterERKSt9type_info
FNA:25,0,_ZNSt15_Sp_counted_ptrIPN7testing8internal16TypedExpectationIFivEEELN9__gnu_cxx12_Lock_policyE2EE14_M_get_deleterERKSt9type_info
FNA:25,0,_ZNSt15_Sp_counted_ptrIPN7testing8internal16TypedExpectationIFviEEELN9__gnu_cxx12_Lock_policyE2EE14_M_get_deleterERKSt9type_info
FNL:26,469,469
FNA:26,6,_ZNSt14_Sp_ebo_helperILi0ESaIvELb1EEC2ERKS0_
FNL:27,473,473
FNA:27,12,_ZNSt14_Sp_ebo_helperILi0ESaIvELb1EE6_S_getERS1_
FNL:28,566,570
FNA:28,0,_ZNSt19_Sp_make_shared_tag5_S_tiEv
FNL:29,589,589
FNA:29,3,_ZNSt23_Sp_counted_ptr_inplaceIN7testing10OnceActionIFivEEESaIvELN9__gnu_cxx12_Lock_policyE2EE5_ImplC2ES4_
FNA:29,3,_ZNSt23_Sp_counted_ptr_inplaceIN7testing8internal12ReturnActionIiE4ImplIiEESaIvELN9__gnu_cxx12_Lock_policyE2EE5_ImplC2ES6_
FNL:30,591,591
FNA:30,6,_ZNSt23_Sp_counted_ptr_inplaceIN7testing10OnceActionIFivEEESaIvELN9__gnu_cxx12_Lock_policyE2EE5_Impl8_M_allocEv
FNA:30,6,_ZNSt23_Sp_counted_ptr_inplaceIN7testing8internal12ReturnActionIiE4ImplIiEESaIvELN9__gnu_cxx12_Lock_policyE2EE5_Impl8_M_allocEv
FNL:31,601,608
FNA:31,3,_ZNSt23_Sp_counted_ptr_inplaceIN7testing10OnceActionIFivEEESaIvELN9__gnu_cxx12_Lock_policyE2EEC2IJS3_EEES4_DpOT_
FNA:31,3,_ZNSt23_Sp_counted_ptr_inplaceIN7testing8internal12ReturnActionIiE4ImplIiEESaIvELN9__gnu_cxx12_Lock_policyE2EEC2IJS5_EEES6_DpOT_
FNL:32,610,610
FNA:32,0,_ZNSt23_Sp_counted_ptr_inplaceIN7testing10OnceActionIFivEEESaIvELN9__gnu_cxx12_Lock_policyE2EED0Ev
FNA:32,3,_ZNSt23_Sp_counted_ptr_inplaceIN7testing10OnceActionIFivEEESaIvELN9__gnu_cxx12_Lock_policyE2EED2Ev
FNA:32,0,_ZNSt23_Sp_counted_ptr_inplaceIN7testing8internal12ReturnActionIiE4ImplIiEESaIvELN9__gnu_cxx12_Lock_policyE2EED0Ev
FNA:32,3,_ZNSt23_Sp_counted_ptr_inplaceIN7testing8internal12ReturnActionIiE4ImplIiEESaIvELN9__gnu_cxx12_Lock_policyE2EED2Ev
FNL:33,613,616
FNA:33,3,_ZNSt23_Sp_counted_ptr_inplaceIN7testing10OnceActionIFivEEESaIvELN9__gnu_cxx12_Lock_policyE2EE10_M_disposeEv
FNA:33,3,_ZNSt23_Sp_counted_ptr_inplaceIN7testing8internal12ReturnActionIiE4ImplIiEESaIvELN9__gnu_cxx12_Lock_policyE2EE10_M_disposeEv
FNL:34,620,625
FNA:34,3,_ZNSt23_Sp_counted_ptr_inplaceIN7testing10OnceActionIFivEEESaIvELN9__gnu_cxx12_Lock_policyE2EE10_M_destroyEv
FNA:34,3,_ZNSt23_Sp_counted_ptr_inplaceIN7testing8internal12ReturnActionIiE4ImplIiEESaIvELN9__gnu_cxx12_Lock_policyE2EE10_M_destroyEv
FNL:35,633,649
FNA:35,0,_ZNSt23_Sp_counted_ptr_inplaceIN7testing10OnceActionIFivEEESaIvELN9__gnu_cxx12_Lock_policyE2EE14_M_get_deleterERKSt9type_info
FNA:35,0,_ZNSt23_Sp_counted_ptr_inplaceIN7testing8internal12ReturnActionIiE4ImplIiEESaIvELN9__gnu_cxx12_Lock_policyE2EE14_M_get_deleterERKSt9type_info
FNL:36,652,652
FNA:36,9,_ZNSt23_Sp_counted_ptr_inplaceIN7testing10OnceActionIFivEEESaIvELN9__gnu_cxx12_Lock_policyE2EE6_M_ptrEv
FNA:36,9,_ZNSt23_Sp_counted_ptr_inplaceIN7testing8internal12ReturnActionIiE4ImplIiEESaIvELN9__gnu_cxx12_Lock_policyE2EE6_M_ptrEv
FNL:37,905,906
FNA:37,9,_ZNSt14__shared_countILN9__gnu_cxx12_Lock_policyE2EEC2Ev
FNL:38,910,921
FNA:38,15,_ZNSt14__shared_countILN9__gnu_cxx12_Lock_policyE2EEC2IPN7testing8internal12ReturnActionIiE4ImplIiE5StateEEET_
FNA:38,12,_ZNSt14__shared_countILN9__gnu_cxx12_Lock_policyE2EEC2IPN7testing8internal16TypedExpectationIFivEEEEET_
FNA:38,9,_ZNSt14__shared_countILN9__gnu_cxx12_Lock_policyE2EEC2IPN7testing8internal16TypedExpectationIFviEEEEET_
FNL:39,924,926
FNA:39,15,_ZNSt14__shared_countILN9__gnu_cxx12_Lock_policyE2EEC2IPN7testing8internal12ReturnActionIiE4ImplIiE5StateEEET_St17integral_constantIbLb0EE
FNA:39,12,_ZNSt14__shared_countILN9__gnu_cxx12_Lock_policyE2EEC2IPN7testing8internal16TypedExpectationIFivEEEEET_St17integral_constantIbLb0EE
FNA:39,9,_ZNSt14__shared_countILN9__gnu_cxx12_Lock_policyE2EEC2IPN7testing8internal16TypedExpectationIFviEEEEET_St17integral_constantIbLb0EE
FNL:40,961,974
FNA:40,3,_ZNSt14__shared_countILN9__gnu_cxx12_Lock_policyE2EEC2IN7testing10OnceActionIFivEEESaIvEJS7_EEERPT_St20_Sp_alloc_shared_tagIT0_EDpOT1_
FNA:40,3,_ZNSt14__shared_countILN9__gnu_cxx12_Lock_policyE2EEC2IN7testing8internal12ReturnActionIiE4ImplIiEESaIvEJS9_EEERPT_St20_Sp_alloc_shared_tagIT0_EDpOT1_
FNF:41
FNH:35
DA:128,87
DA:129,87
DA:132,87
DA:133,87
DA:142,0
DA:143,0
DA:150,90
DA:151,90
DA:171,0
DA:174,0
DA:186,0
DA:187,0
DA:190,0
DA:192,0
DA:197,0
DA:198,0
DA:316,177
DA:320,177
DA:323,177
DA:327,177
DA:330,177
DA:331,177
DA:332,177
DA:333,177
DA:336,177
DA:342,87
DA:345,87
DA:346,87
DA:347,87
DA:349,180
DA:350,0
DA:352,0
DA:353,0
DA:422,36
DA:423,36
DA:426,36
DA:427,36
DA:430,36
DA:431,36
DA:434,0
DA:435,0
DA:469,6
DA:473,12
DA:566,0
DA:569,0
DA:589,6
DA:591,12
DA:601,6
DA:602,6
DA:606,6
DA:608,6
DA:610,6
DA:613,6
DA:615,6
DA:616,6
DA:620,6
DA:622,6
DA:623,6
DA:624,6
DA:625,6
DA:633,0
DA:639,0
DA:640,0
DA:642,0
DA:647,0
DA:648,0
DA:652,18
DA:905,9
DA:906,9
DA:910,36
DA:914,36
DA:916,0
DA:918,0
DA:919,0
DA:921,36
DA:924,36
DA:925,36
DA:926,36
DA:961,6
DA:966,6
DA:967,6
DA:968,6
DA:969,12
DA:971,6
DA:972,6
DA:973,6
DA:974,12
DA:1066,162
DA:1068,162
DA:1069,153
DA:1070,162
DA:1072,66
DA:1073,66
DA:1075,66
DA:1076,66
DA:1077,66
DA:1080,24
DA:1082,24
DA:1083,24
DA:1085,24
DA:1086,24
DA:1087,24
DA:1088,24
DA:1089,24
DA:1091,24
DA:1095,9
DA:1097,9
DA:1098,9
DA:1099,9
DA:1100,9
DA:1344,6
DA:1345,6
DA:1357,6
DA:1358,12
DA:1361,141
DA:1364,141
DA:1369,147
DA:1370,147
DA:1475,36
DA:1476,36
DA:1480,36
DA:1481,36
DA:1529,66
DA:1530,24
DA:1531,162
DA:1538,9
DA:1539,9
DA:1541,9
DA:1542,9
DA:1543,9
DA:1672,198
DA:1673,198
DA:1718,6
DA:1719,12
DA:1720,6
DA:1772,42
DA:1773,42
LF:137
LH:111
end_of_record
TN:
SF:/usr/include/c++/15/bits/std_function.h
FNL:0,136,145
FNA:0,3,_ZNSt14_Function_base13_Base_managerIN7testing10OnceActionIFivEE18StdFunctionAdaptorINS1_8internal12ReturnActionIiE4ImplIiEEEEE14_M_get_pointerERKSt9_Any_data
FNA:0,42,_ZNSt14_Function_base13_Base_managerIN7testing8internal12ReturnActionIiE4ImplIiEEE14_M_get_pointerERKSt9_Any_data
FNA:0,6,_ZNSt14_Function_base13_Base_managerIN7testing8internal16TypedExpectationIFivEE13ActionAdaptorEE14_M_get_pointerERKSt9_Any_data
FNL:1,160,164
FNA:1,0,_ZNSt14_Function_base13_Base_managerIN7testing10OnceActionIFivEE18StdFunctionAdaptorINS1_8internal12ReturnActionIiE4ImplIiEEEEE9_M_createIRKSB_EEvRSt9_Any_dataOT_St17integral_constantIbLb0EE
FNA:1,3,_ZNSt14_Function_base13_Base_managerIN7testing10OnceActionIFivEE18StdFunctionAdaptorINS1_8internal12ReturnActionIiE4ImplIiEEEEE9_M_createISB_EEvRSt9_Any_dataOT_St17integral_constantIbLb0EE
FNA:1,27,_ZNSt14_Function_base13_Base_managerIN7testing8internal12ReturnActionIiE4ImplIiEEE9_M_createIRKS6_EEvRSt9_Any_dataOT_St17integral_constantIbLb0EE
FNA:1,12,_ZNSt14_Function_base13_Base_managerIN7testing8internal12ReturnActionIiE4ImplIiEEE9_M_createIS6_EEvRSt9_Any_dataOT_St17integral_constantIbLb0EE
FNA:1,3,_ZNSt14_Function_base13_Base_managerIN7testing8internal16TypedExpectationIFivEE13ActionAdaptorEE9_M_createIRKS6_EEvRSt9_Any_dataOT_St17integral_constantIbLb0EE
FNA:1,3,_ZNSt14_Function_base13_Base_managerIN7testing8internal16TypedExpectationIFivEE13ActionAdaptorEE9_M_createIS6_EEvRSt9_Any_dataOT_St17integral_constantIbLb0EE
FNL:2,175,178
FNA:2,3,_ZNSt14_Function_base13_Base_managerIN7testing10OnceActionIFivEE18StdFunctionAdaptorINS1_8internal12ReturnActionIiE4ImplIiEEEEE10_M_destroyERSt9_Any_dataSt17integral_constantIbLb0EE
FNA:2,39,_ZNSt14_Function_base13_Base_managerIN7testing8internal12ReturnActionIiE4ImplIiEEE10_M_destroyERSt9_Any_dataSt17integral_constantIbLb0EE
FNA:2,6,_ZNSt14_Function_base13_Base_managerIN7testing8internal16TypedExpectationIFivEE13ActionAdaptorEE10_M_destroyERSt9_Any_dataSt17integral_constantIbLb0EE
FNL:3,182,209
FNA:3,3,_ZNSt14_Function_base13_Base_managerIN7testing10OnceActionIFivEE18StdFunctionAdaptorINS1_8internal12ReturnActionIiE4ImplIiEEEEE10_M_managerERSt9_Any_dataRKSD_St18_Manager_operation
FNA:3,66,_ZNSt14_Function_base13_Base_managerIN7testing8internal12ReturnActionIiE4ImplIiEEE10_M_managerERSt9_Any_dataRKS8_St18_Manager_operation
FNA:3,9,_ZNSt14_Function_base13_Base_managerIN7testing8internal16TypedExpectationIFivEE13ActionAdaptorEE10_M_managerERSt9_Any_dataRKS8_St18_Manager_operation
FNL:4,213,218
FNA:4,0,_ZNSt14_Function_base13_Base_managerIN7testing10OnceActionIFivEE18StdFunctionAdaptorINS1_8internal12ReturnActionIiE4ImplIiEEEEE15_M_init_functorIRKSB_EEvRSt9_Any_dataOT_
FNA:4,3,_ZNSt14_Function_base13_Base_managerIN7testing10OnceActionIFivEE18StdFunctionAdaptorINS1_8internal12ReturnActionIiE4ImplIiEEEEE15_M_init_functorISB_EEvRSt9_Any_dataOT_
FNA:4,27,_ZNSt14_Function_base13_Base_managerIN7testing8internal12ReturnActionIiE4ImplIiEEE15_M_init_functorIRKS6_EEvRSt9_Any_dataOT_
FNA:4,12,_ZNSt14_Function_base13_Base_managerIN7testing8internal12ReturnActionIiE4ImplIiEEE15_M_init_functorIS6_EEvRSt9_Any_dataOT_
FNA:4,3,_ZNSt14_Function_base13_Base_managerIN7testing8internal16TypedExpectationIFivEE13ActionAdaptorEE15_M_init_functorIRKS6_EEvRSt9_Any_dataOT_
FNA:4,3,_ZNSt14_Function_base13_Base_managerIN7testing8internal16TypedExpectationIFivEE13ActionAdaptorEE15_M_init_functorIS6_EEvRSt9_Any_dataOT_
FNL:5,237,238
FNA:5,3,_ZNSt14_Function_base13_Base_managerIN7testing10OnceActionIFivEE18StdFunctionAdaptorINS1_8internal12ReturnActionIiE4ImplIiEEEEE21_M_not_empty_functionISB_EEbRKT_
FNA:5,12,_ZNSt14_Function_base13_Base_managerIN7testing8internal12ReturnActionIiE4ImplIiEEE21_M_not_empty_functionIS6_EEbRKT_
FNA:5,3,_ZNSt14_Function_base13_Base_managerIN7testing8internal16TypedExpectationIFivEE13ActionAdaptorEE21_M_not_empty_functionIS6_EEbRKT_
FNL:6,241,241
FNA:6,90,_ZNSt14_Function_baseC2Ev
FNL:7,243,247
FNA:7,90,_ZNSt14_Function_baseD2Ev
FNL:8,249,249
FNA:8,102,_ZNKSt14_Function_base8_M_emptyEv
FNL:9,269,287
FNA:9,3,_ZNSt17_Function_handlerIFivEN7testing10OnceActionIS0_E18StdFunctionAdaptorINS1_8internal12ReturnActionIiE4ImplIiEEEEE10_M_managerERSt9_Any_dataRKSC_St18_Manager_operation
FNA:9,66,_ZNSt17_Function_handlerIFivEN7testing8internal12ReturnActionIiE4ImplIiEEE10_M_managerERSt9_Any_dataRKS8_St18_Manager_operation
FNA:9,9,_ZNSt17_Function_handlerIFivEN7testing8internal16TypedExpectationIS0_E13ActionAdaptorEE10_M_managerERSt9_Any_dataRKS7_St18_Manager_operation
FNL:10,290,294
FNA:10,3,_ZNSt17_Function_handlerIFivEN7testing10OnceActionIS0_E18StdFunctionAdaptorINS1_8internal12ReturnActionIiE4ImplIiEEEEE9_M_invokeERKSt9_Any_data
FNA:10,15,_ZNSt17_Function_handlerIFivEN7testing8internal12ReturnActionIiE4ImplIiEEE9_M_invokeERKSt9_Any_data
FNA:10,3,_ZNSt17_Function_handlerIFivEN7testing8internal16TypedExpectationIS0_E13ActionAdaptorEE9_M_invokeERKSt9_Any_data
FNL:11,370,371
FNA:11,27,_ZNSt8functionIFivEEC2Ev
FNA:11,9,_ZNSt8functionIFviEEC2Ev
FNL:12,388,397
FNA:12,30,_ZNSt8functionIFivEEC2ERKS1_
FNA:12,0,_ZNSt8functionIFviEEC2ERKS1_
FNA:12,0,_ZNSt8functionIFvvEEC2ERKS1_
FNL:13,406,416
FNA:13,6,_ZNSt8functionIFivEEC2EOS1_
FNL:14,437,456
FNA:14,3,_ZNSt8functionIFivEEC2IN7testing10OnceActionIS0_E18StdFunctionAdaptorINS3_8internal12ReturnActionIiE4ImplIiEEEEvEEOT_
FNA:14,12,_ZNSt8functionIFivEEC2IN7testing8internal12ReturnActionIiE4ImplIiEEvEEOT_
FNA:14,3,_ZNSt8functionIFivEEC2IN7testing8internal16TypedExpectationIS0_E13ActionAdaptorEvEEOT_
FNL:15,471,475
FNA:15,12,_ZNSt8functionIFivEEaSERKS1_
FNL:16,533,538
FNA:16,12,_ZNSt8functionIFivEEaSIN7testing8internal12ReturnActionIiE4ImplIiEEEENSt9enable_ifIXsrNS1_9_CallableIT_NS9_IXntsrSt7is_sameINSt9remove_cvINSt16remove_referenceISB_E4typeEE4typeES1_E5valueESt5decayISB_EE4type4typeESt15__invoke_resultIRSO_JEEEE5valueERS1_E4typeEOSB_
FNA:16,3,_ZNSt8functionIFivEEaSIN7testing8internal16TypedExpectationIS0_E13ActionAdaptorEEENSt9enable_ifIXsrNS1_9_CallableIT_NS8_IXntsrSt7is_sameINSt9remove_cvINSt16remove_referenceISA_E4typeEE4typeES1_E5valueESt5decayISA_EE4type4typeESt15__invoke_resultIRSN_JEEEE5valueERS1_E4typeEOSA_
FNL:17,558,563
FNA:17,27,_ZNSt8functionIFivEE4swapERS1_
FNL:18,575,576
FNA:18,72,_ZNKSt8functionIFivEEcvbEv
FNA:18,9,_ZNKSt8functionIFviEEcvbEv
FNA:18,0,_ZNKSt8functionIFvvEEcvbEv
FNL:19,589,594
FNA:19,21,_ZNKSt8functionIFivEEclEv
FNA:19,0,_ZNKSt8functionIFviEEclEi
FNA:19,0,_ZNKSt8functionIFvvEEclEv
FNL:20,747,748
FNA:20,36,_ZSteqIiJEEbRKSt8functionIFT_DpT0_EEDn
FNA:20,0,_ZSteqIvJEEbRKSt8functionIFT_DpT0_EEDn
FNA:20,9,_ZSteqIvJiEEbRKSt8functionIFT_DpT0_EEDn
FNL:21,87,87
FNA:21,96,_ZNSt9_Any_data9_M_accessEv
FNL:22,88,88
FNA:22,51,_ZNKSt9_Any_data9_M_accessEv
FNL:23,92,93
FNA:23,0,_ZNSt9_Any_data9_M_accessIPKSt9type_infoEERT_v
FNA:23,6,_ZNSt9_Any_data9_M_accessIPN7testing10OnceActionIFivEE18StdFunctionAdaptorINS1_8internal12ReturnActionIiE4ImplIiEEEEEERT_v
FNA:23,78,_ZNSt9_Any_data9_M_accessIPN7testing8internal12ReturnActionIiE4ImplIiEEEERT_v
FNA:23,12,_ZNSt9_Any_data9_M_accessIPN7testing8internal16TypedExpectationIFivEE13ActionAdaptorEEERT_v
FNL:24,97,98
FNA:24,3,_ZNKSt9_Any_data9_M_accessIPN7testing10OnceActionIFivEE18StdFunctionAdaptorINS1_8internal12ReturnActionIiE4ImplIiEEEEEERKT_v
FNA:24,42,_ZNKSt9_Any_data9_M_accessIPN7testing8internal12ReturnActionIiE4ImplIiEEEERKT_v
FNA:24,6,_ZNKSt9_Any_data9_M_accessIPN7testing8internal16TypedExpectationIFivEE13ActionAdaptorEEERKT_v
FNF:25
FNH:25
DA:87,96
DA:88,51
DA:92,96
DA:93,96
DA:97,51
DA:98,51
DA:136,51
DA:144,51
DA:160,48
DA:162,48
DA:163,96
DA:164,48
DA:175,48
DA:177,48
DA:178,48
DA:182,78
DA:185,78
DA:187,0
DA:189,0
DA:193,0
DA:195,0
DA:196,0
DA:197,0
DA:199,30
DA:200,30
DA:201,30
DA:202,30
DA:204,48
DA:205,48
DA:206,48
DA:208,78
DA:213,48
DA:217,48
DA:218,48
DA:237,18
DA:238,18
DA:241,90
DA:243,90
DA:245,90
DA:246,48
DA:247,90
DA:249,102
DA:269,78
DA:272,78
DA:275,0
DA:276,0
DA:277,0
DA:279,0
DA:280,0
DA:281,0
DA:283,78
DA:284,78
DA:286,78
DA:290,21
DA:292,21
DA:293,21
DA:370,36
DA:371,36
DA:388,30
DA:389,30
DA:391,30
DA:393,30
DA:394,30
DA:395,30
DA:397,30
DA:406,6
DA:407,6
DA:409,6
DA:411,6
DA:412,6
DA:413,6
DA:414,6
DA:416,6
DA:437,18
DA:439,18
DA:449,18
DA:451,18
DA:453,18
DA:454,18
DA:456,18
DA:471,12
DA:473,12
DA:474,12
DA:533,15
DA:536,15
DA:537,15
DA:558,27
DA:560,27
DA:561,27
DA:562,27
DA:563,27
DA:575,81
DA:576,81
DA:589,21
DA:591,21
DA:592,0
DA:593,21
DA:747,45
DA:748,45
LF:99
LH:86
end_of_record
TN:
SF:/usr/include/c++/15/bits/stl_algobase.h
FNL:0,234,242
FNA:0,19434,_ZSt3minImERKT_S2_S2_
FNL:1,258,266
FNA:1,120,_ZSt3maxImERKT_S2_S2_
FNF:2
FNH:2
DA:234,19434
DA:239,19434
DA:240,0
DA:241,19434
DA:258,120
DA:263,120
DA:264,66
DA:265,54
LF:8
LH:7
end_of_record
TN:
SF:/usr/include/c++/15/bits/stl_construct.h
FNL:0,123,134
FNA:0,3,_ZSt10_ConstructIN7testing10OnceActionIFivEEEJS3_EEvPT_DpOT0_
FNA:0,3,_ZSt10_ConstructIN7testing8internal12ReturnActionIiE4ImplIiEEJS5_EEvPT_DpOT0_
FNL:1,161,168
FNA:1,3,_ZSt8_DestroyIN7testing10OnceActionIFivEEEEvPT_
FNA:1,3,_ZSt8_DestroyIN7testing8internal12ReturnActionIiE4ImplIiEEEvPT_
FNL:2,219,236
FNA:2,405,_ZSt8_DestroyIPPKvEvT_S3_
FNF:3
FNH:3
DA:123,6
DA:133,12
DA:134,6
DA:161,6
DA:166,6
DA:168,6
DA:219,405
DA:236,405
LF:8
LH:8
end_of_record
TN:
SF:/usr/include/c++/15/bits/stl_function.h
FNL:0,451,458
FNA:0,336,_ZNKSt4lessIPKcEclES1_S1_
FNL:1,499,502
FNA:1,12,_ZNKSt8equal_toIvEclIRKiS3_EEDTeqcl7forwardIT_Efp_Ecl7forwardIT0_Efp0_EEOS4_OS5_
FNF:2
FNH:2
DA:451,336
DA:454,336
DA:455,0
DA:457,336
DA:499,12
DA:502,24
LF:6
LH:5
end_of_record
TN:
SF:/usr/include/c++/15/bits/stl_iterator.h
FNL:0,190,193
FNA:0,72,_ZNSt16reverse_iteratorIN9__gnu_cxx17__normal_iteratorIPKPKvSt6vectorIS3_SaIS3_EEEEEC2ES9_
FNA:0,57,_ZNSt16reverse_iteratorIN9__gnu_cxx17__normal_iteratorIPKSt10shared_ptrIN7testing8internal15ExpectationBaseEESt6vectorIS6_SaIS6_EEEEEC2ESC_
FNL:1,243,245
FNA:1,72,_ZNKSt16reverse_iteratorIN9__gnu_cxx17__normal_iteratorIPKPKvSt6vectorIS3_SaIS3_EEEEE4baseEv
FNA:1,60,_ZNKSt16reverse_iteratorIN9__gnu_cxx17__normal_iteratorIPKSt10shared_ptrIN7testing8internal15ExpectationBaseEESt6vectorIS6_SaIS6_EEEEE4baseEv
FNL:2,259,263
FNA:2,0,_ZNKSt16reverse_iteratorIN9__gnu_cxx17__normal_iteratorIPKPKvSt6vectorIS3_SaIS3_EEEEEdeEv
FNL:3,272,283
FNA:3,30,_ZNKSt16reverse_iteratorIN9__gnu_cxx17__normal_iteratorIPKSt10shared_ptrIN7testing8internal15ExpectationBaseEESt6vectorIS6_SaIS6_EEEEEptEv
FNL:4,291,295
FNA:4,0,_ZNSt16reverse_iteratorIN9__gnu_cxx17__normal_iteratorIPKPKvSt6vectorIS3_SaIS3_EEEEEppEv
FNA:4,3,_ZNSt16reverse_iteratorIN9__gnu_cxx17__normal_iteratorIPKSt10shared_ptrIN7testing8internal15ExpectationBaseEESt6vectorIS6_SaIS6_EEEEEppEv
FNL:5,425,426
FNA:5,30,_ZNSt16reverse_iteratorIN9__gnu_cxx17__normal_iteratorIPKSt10shared_ptrIN7testing8internal15ExpectationBaseEESt6vectorIS6_SaIS6_EEEEE13_S_to_pointerISC_EES8_T_
FNL:6,443,445
FNA:6,36,_ZSteqIN9__gnu_cxx17__normal_iteratorIPKPKvSt6vectorIS3_SaIS3_EEEEEbRKSt16reverse_iteratorIT_ESE_
FNA:6,30,_ZSteqIN9__gnu_cxx17__normal_iteratorIPKSt10shared_ptrIN7testing8internal15ExpectationBaseEESt6vectorIS6_SaIS6_EEEEEbRKSt16reverse_iteratorIT_ESH_
FNL:7,457,459
FNA:7,36,_ZStneIN9__gnu_cxx17__normal_iteratorIPKPKvSt6vectorIS3_SaIS3_EEEEEbRKSt16reverse_iteratorIT_ESE_
FNA:7,30,_ZStneIN9__gnu_cxx17__normal_iteratorIPKSt10shared_ptrIN7testing8internal15ExpectationBaseEESt6vectorIS6_SaIS6_EEEEEbRKSt16reverse_iteratorIT_ESH_
FNF:8
FNH:7
DA:190,129
DA:192,129
DA:193,129
DA:243,132
DA:245,132
DA:259,0
DA:261,0
DA:262,0
DA:272,30
DA:280,30
DA:282,30
DA:291,3
DA:293,3
DA:294,3
DA:425,30
DA:426,30
DA:443,66
DA:445,132
DA:457,66
DA:459,66
DA:1058,1023
DA:1059,1020
DA:1070,213
DA:1082,213
DA:1090,6
DA:1096,30
DA:1103,3
DA:1104,3
DA:1120,33
DA:1121,33
DA:1160,3
DA:1166,522
DA:1231,138
DA:1239,432
DA:1340,48
DA:3011,504
LF:36
LH:33
end_of_record
TN:
SF:/usr/include/c++/15/bits/stl_iterator_base_funcs.h
FNF:0
FNH:0
DA:108,432
DA:153,864
DA:154,864
LF:3
LH:3
end_of_record
TN:
SF:/usr/include/c++/15/bits/stl_iterator_base_types.h
FNF:0
FNH:0
DA:242,432
LF:1
LH:1
end_of_record
TN:
SF:/usr/include/c++/15/bits/stl_set.h
FNL:0,172,172
FNA:0,21,_ZNSt3setIN7testing11ExpectationENS1_4LessESaIS1_EEC2Ev
FNL:1,305,305
FNA:1,21,_ZNSt3setIN7testing11ExpectationENS1_4LessESaIS1_EED2Ev
FNL:2,368,369
FNA:2,57,_ZNKSt3setIN7testing11ExpectationENS1_4LessESaIS1_EE5beginEv
FNL:3,377,378
FNA:3,57,_ZNKSt3setIN7testing11ExpectationENS1_4LessESaIS1_EE3endEv
FNF:4
FNH:4
DA:172,21
DA:305,21
DA:368,57
DA:369,57
DA:377,57
DA:378,57
LF:6
LH:6
end_of_record
TN:
SF:/usr/include/c++/15/bits/stl_tree.h
FNL:0,1154,1155
FNA:0,0,_ZNSt8_Rb_treeIN7testing11ExpectationES1_St9_IdentityIS1_ENS1_4LessESaIS1_EE21_M_get_Node_allocatorEv
FNL:1,1188,1207
FNA:1,0,_ZNSt8_Rb_treeIN7testing11ExpectationES1_St9_IdentityIS1_ENS1_4LessESaIS1_EE11_M_put_nodeEPSt13_Rb_tree_nodeIS1_E
FNL:2,1260,1268
FNA:2,0,_ZNSt8_Rb_treeIN7testing11ExpectationES1_St9_IdentityIS1_ENS1_4LessESaIS1_EE15_M_destroy_nodeEPSt13_Rb_tree_nodeIS1_E
FNL:3,1271,1275
FNA:3,0,_ZNSt8_Rb_treeIN7testing11ExpectationES1_St9_IdentityIS1_ENS1_4LessESaIS1_EE12_M_drop_nodeEPSt13_Rb_tree_nodeIS1_E
FNL:4,1310,1315
FNA:4,21,_ZNSt8_Rb_treeIN7testing11ExpectationES1_St9_IdentityIS1_ENS1_4LessESaIS1_EE13_Rb_tree_implIS4_Lb1EEC2Ev
FNL:5,134,135
FNA:5,585,_ZNKSt18_Rb_tree_node_base11_M_base_ptrEv
FNL:6,1381,1387
FNA:6,21,_ZNKSt8_Rb_treeIN7testing11ExpectationES1_St9_IdentityIS1_ENS1_4LessESaIS1_EE13_M_begin_nodeEv
FNL:7,1390,1391
FNA:7,57,_ZNKSt8_Rb_treeIN7testing11ExpectationES1_St9_IdentityIS1_ENS1_4LessESaIS1_EE6_M_endEv
FNL:8,1428,1433
FNA:8,0,_ZNSt8_Rb_treeIN7testing11ExpectationES1_St9_IdentityIS1_ENS1_4LessESaIS1_EE7_S_leftEPSt13_Rb_tree_nodeIS1_E
FNL:9,144,148
FNA:9,21,_ZNSt20_Rb_tree_key_compareIN7testing11Expectation4LessEEC2Ev
FNL:10,1440,1445
FNA:10,0,_ZNSt8_Rb_treeIN7testing11ExpectationES1_St9_IdentityIS1_ENS1_4LessESaIS1_EE8_S_rightEPSt13_Rb_tree_nodeIS1_E
FNL:11,1553,1553
FNA:11,21,_ZNSt8_Rb_treeIN7testing11ExpectationES1_St9_IdentityIS1_ENS1_4LessESaIS1_EEC2Ev
FNL:12,1608,1609
FNA:12,21,_ZNSt8_Rb_treeIN7testing11ExpectationES1_St9_IdentityIS1_ENS1_4LessESaIS1_EED2Ev
FNL:13,1624,1625
FNA:13,57,_ZNKSt8_Rb_treeIN7testing11ExpectationES1_St9_IdentityIS1_ENS1_4LessESaIS1_EE5beginEv
FNL:14,1632,1633
FNA:14,57,_ZNKSt8_Rb_treeIN7testing11ExpectationES1_St9_IdentityIS1_ENS1_4LessESaIS1_EE3endEv
FNL:15,171,175
FNA:15,42,_ZNSt15_Rb_tree_headerC2Ev
FNL:16,204,210
FNA:16,54,_ZNSt15_Rb_tree_header8_M_resetEv
FNL:17,230,231
FNA:17,0,_ZNSt13_Rb_tree_nodeIN7testing11ExpectationEE9_M_valptrEv
FNL:18,234,235
FNA:18,0,_ZNKSt13_Rb_tree_nodeIN7testing11ExpectationEE9_M_valptrEv
FNL:19,239,240
FNA:19,0,_ZNSt13_Rb_tree_nodeIN7testing11ExpectationEE11_M_node_ptrEv
FNL:20,2582,2593
FNA:20,21,_ZNSt8_Rb_treeIN7testing11ExpectationES1_St9_IdentityIS1_ENS1_4LessESaIS1_EE8_M_eraseEPSt13_Rb_tree_nodeIS1_E
FNL:21,463,464
FNA:21,114,_ZNSt23_Rb_tree_const_iteratorIN7testing11ExpectationEEC2EPSt18_Rb_tree_node_base
FNL:22,474,475
FNA:22,0,_ZNKSt23_Rb_tree_const_iteratorIN7testing11ExpectationEEptEv
FNL:23,478,482
FNA:23,0,_ZNSt23_Rb_tree_const_iteratorIN7testing11ExpectationEEppEv
FNL:24,514,516
FNA:24,57,_ZStneRKSt23_Rb_tree_const_iteratorIN7testing11ExpectationEES4_
FNF:25
FNH:14
DA:134,585
DA:135,585
DA:144,21
DA:148,21
DA:171,42
DA:172,42
DA:173,42
DA:174,42
DA:175,42
DA:204,54
DA:206,54
DA:207,54
DA:208,54
DA:209,54
DA:210,54
DA:230,0
DA:231,0
DA:234,0
DA:235,0
DA:239,0
DA:240,0
DA:463,114
DA:464,114
DA:474,0
DA:475,0
DA:478,0
DA:480,0
DA:481,0
DA:514,57
DA:516,57
DA:1154,0
DA:1155,0
DA:1188,0
DA:1191,0
DA:1207,0
DA:1260,0
DA:1265,0
DA:1266,0
DA:1268,0
DA:1271,0
DA:1273,0
DA:1274,0
DA:1275,0
DA:1310,21
DA:1314,21
DA:1315,21
DA:1381,21
DA:1383,21
DA:1385,21
DA:1386,21
DA:1390,57
DA:1391,57
DA:1428,0
DA:1430,0
DA:1431,0
DA:1432,0
DA:1440,0
DA:1442,0
DA:1443,0
DA:1444,0
DA:1553,21
DA:1608,21
DA:1609,21
DA:1624,57
DA:1625,57
DA:1632,57
DA:1633,57
DA:2582,21
DA:2586,21
DA:2588,0
DA:2589,0
DA:2590,0
DA:2591,0
DA:2593,21
LF:74
LH:38
end_of_record
TN:
SF:/usr/include/c++/15/bits/stl_uninitialized.h
FNL:0,1307,1317
FNA:0,3,_ZSt19__relocate_object_aISt10shared_ptrIN7testing8internal15ExpectationBaseEES4_SaIS4_EEvPT_PT0_RT1_
FNL:1,1330,1347
FNA:1,21,_ZSt14__relocate_a_1IPSt10shared_ptrIN7testing8internal15ExpectationBaseEES5_SaIS4_EET0_T_S8_S7_RT1_
FNL:2,1353,1373
FNA:2,3,_ZSt14__relocate_a_1IPKvS1_ENSt9enable_ifIXsrSt24__is_bitwise_relocatableIT_vE5valueEPS4_E4typeES6_S6_S6_RSaIT0_E
FNL:3,1380,1389
FNA:3,3,_ZSt12__relocate_aIPPKvS2_SaIS1_EET0_T_S5_S4_RT1_
FNA:3,21,_ZSt12__relocate_aIPSt10shared_ptrIN7testing8internal15ExpectationBaseEES5_SaIS4_EET0_T_S8_S7_RT1_
FNF:4
FNH:4
DA:1307,3
DA:1315,3
DA:1316,3
DA:1317,3
DA:1330,21
DA:1342,21
DA:1343,24
DA:1344,6
DA:1346,21
DA:1353,3
DA:1357,3
DA:1358,3
DA:1370,0
DA:1372,3
DA:1380,24
DA:1386,72
DA:1388,24
LF:17
LH:16
end_of_record
TN:
SF:/usr/include/c++/15/bits/stl_vector.h
FNL:0,1008,1009
FNA:0,39,_ZNKSt6vectorIPKvSaIS1_EE5beginEv
FNA:0,30,_ZNKSt6vectorISt10shared_ptrIN7testing8internal15ExpectationBaseEESaIS4_EE5beginEv
FNL:1,1018,1019
FNA:1,222,_ZNSt6vectorIPKvSaIS1_EE3endEv
FNA:1,234,_ZNSt6vectorISt10shared_ptrIN7testing8internal15ExpectationBaseEESaIS4_EE3endEv
FNL:2,1028,1029
FNA:2,39,_ZNKSt6vectorIPKvSaIS1_EE3endEv
FNA:2,27,_ZNKSt6vectorISt10shared_ptrIN7testing8internal15ExpectationBaseEESaIS4_EE3endEv
FNL:3,1048,1049
FNA:3,36,_ZNKSt6vectorIPKvSaIS1_EE6rbeginEv
FNA:3,27,_ZNKSt6vectorISt10shared_ptrIN7testing8internal15ExpectationBaseEESaIS4_EE6rbeginEv
FNL:4,105,107
FNA:4,597,_ZNSt12_Vector_baseIPKvSaIS1_EE17_Vector_impl_dataC2Ev
FNL:5,1068,1069
FNA:5,36,_ZNKSt6vectorIPKvSaIS1_EE4rendEv
FNA:5,30,_ZNKSt6vectorISt10shared_ptrIN7testing8internal15ExpectationBaseEESaIS4_EE4rendEv
FNL:6,1117,1123
FNA:6,66,_ZNKSt6vectorIPKvSaIS1_EE4sizeEv
FNA:6,138,_ZNKSt6vectorISt10shared_ptrIN7testing8internal15ExpectationBaseEESaIS4_EE4sizeEv
FNL:7,1128,1129
FNA:7,6,_ZNKSt6vectorIPKvSaIS1_EE8max_sizeEv
FNA:7,42,_ZNKSt6vectorISt10shared_ptrIN7testing8internal15ExpectationBaseEESaIS4_EE8max_sizeEv
FNL:8,119,124
FNA:8,576,_ZNSt12_Vector_baseIPKvSaIS1_EE17_Vector_impl_data12_M_copy_dataERKS4_
FNL:9,1223,1224
FNA:9,3,_ZNKSt6vectorIPKvSaIS1_EE5emptyEv
FNL:10,128,136
FNA:10,192,_ZNSt12_Vector_baseIPKvSaIS1_EE17_Vector_impl_data12_M_swap_dataERS4_
FNL:11,1280,1284
FNA:11,3,_ZNKSt6vectorIPKvSaIS1_EEixEm
FNA:11,0,_ZNKSt6vectorISt10shared_ptrIN7testing8internal15ExpectationBaseEESaIS4_EEixEm
FNL:12,1368,1372
FNA:12,3,_ZNSt6vectorIPKvSaIS1_EE4backEv
FNL:13,1416,1428
FNA:13,21,_ZNSt6vectorISt10shared_ptrIN7testing8internal15ExpectationBaseEESaIS4_EE9push_backERKS4_
FNL:14,143,149
FNA:14,405,_ZNSt12_Vector_baseIPKvSaIS1_EE12_Vector_implC2Ev
FNL:15,1433,1434
FNA:15,3,_ZNSt6vectorIPKvSaIS1_EE9push_backEOS1_
FNL:16,1844,1853
FNA:16,192,_ZNSt6vectorIPKvSaIS1_EE4swapERS3_
FNL:17,1875,1877
FNA:17,3,_ZNSt6vectorIPKvSaIS1_EE12_Guard_allocC2EPS1_mRSt12_Vector_baseIS1_S2_E
FNA:17,21,_ZNSt6vectorISt10shared_ptrIN7testing8internal15ExpectationBaseEESaIS4_EE12_Guard_allocC2EPS4_mRSt12_Vector_baseIS4_S5_E
FNL:18,1880,1884
FNA:18,3,_ZNSt6vectorIPKvSaIS1_EE12_Guard_allocD2Ev
FNA:18,21,_ZNSt6vectorISt10shared_ptrIN7testing8internal15ExpectationBaseEESaIS4_EE12_Guard_allocD2Ev
FNL:19,2202,2209
FNA:19,3,_ZNKSt6vectorIPKvSaIS1_EE12_M_check_lenEmPKc
FNA:19,21,_ZNKSt6vectorISt10shared_ptrIN7testing8internal15ExpectationBaseEESaIS4_EE12_M_check_lenEmPKc
FNL:20,2222,2231
FNA:20,6,_ZNSt6vectorIPKvSaIS1_EE11_S_max_sizeERKS2_
FNA:20,42,_ZNSt6vectorISt10shared_ptrIN7testing8internal15ExpectationBaseEESaIS4_EE11_S_max_sizeERKS5_
FNL:21,307,308
FNA:21,1176,_ZNSt12_Vector_baseIPKvSaIS1_EE19_M_get_Tp_allocatorEv
FNA:21,1191,_ZNSt12_Vector_baseISt10shared_ptrIN7testing8internal15ExpectationBaseEESaIS4_EE19_M_get_Tp_allocatorEv
FNL:22,312,313
FNA:22,6,_ZNKSt12_Vector_baseIPKvSaIS1_EE19_M_get_Tp_allocatorEv
FNA:22,42,_ZNKSt12_Vector_baseISt10shared_ptrIN7testing8internal15ExpectationBaseEESaIS4_EE19_M_get_Tp_allocatorEv
FNL:23,321,321
FNA:23,405,_ZNSt12_Vector_baseIPKvSaIS1_EEC2Ev
FNL:24,373,377
FNA:24,405,_ZNSt12_Vector_baseIPKvSaIS1_EED2Ev
FNL:25,384,388
FNA:25,3,_ZNSt12_Vector_baseIPKvSaIS1_EE11_M_allocateEm
FNA:25,21,_ZNSt12_Vector_baseISt10shared_ptrIN7testing8internal15ExpectationBaseEESaIS4_EE11_M_allocateEm
FNL:26,392,397
FNA:26,405,_ZNSt12_Vector_baseIPKvSaIS1_EE13_M_deallocateEPS1_m
FNA:26,387,_ZNSt12_Vector_baseISt10shared_ptrIN7testing8internal15ExpectationBaseEESaIS4_EE13_M_deallocateEPS4_m
FNL:27,534,544
FNA:27,3,_ZNSt6vectorIPKvSaIS1_EE11_S_relocateEPS1_S4_S4_RS2_
FNA:27,21,_ZNSt6vectorISt10shared_ptrIN7testing8internal15ExpectationBaseEESaIS4_EE11_S_relocateEPS4_S7_S7_RS5_
FNL:28,561,561
FNA:28,405,_ZNSt6vectorIPKvSaIS1_EEC2Ev
FNL:29,800,805
FNA:29,405,_ZNSt6vectorIPKvSaIS1_EED2Ev
FNL:30,998,999
FNA:30,216,_ZNSt6vectorIPKvSaIS1_EE5beginEv
FNA:30,213,_ZNSt6vectorISt10shared_ptrIN7testing8internal15ExpectationBaseEESaIS4_EE5beginEv
FNF:31
FNH:31
DA:105,597
DA:106,597
DA:107,597
DA:119,576
DA:121,576
DA:122,576
DA:123,576
DA:124,576
DA:128,192
DA:132,192
DA:133,192
DA:134,192
DA:135,192
DA:136,192
DA:143,405
DA:148,405
DA:149,405
DA:307,2367
DA:308,2367
DA:312,48
DA:313,48
DA:321,405
DA:373,405
DA:375,405
DA:376,405
DA:377,405
DA:384,24
DA:387,48
DA:392,792
DA:395,792
DA:396,24
DA:397,792
DA:534,24
DA:539,24
DA:561,405
DA:800,405
DA:802,405
DA:803,405
DA:805,405
DA:998,429
DA:999,429
DA:1008,69
DA:1009,69
DA:1018,456
DA:1019,456
DA:1028,66
DA:1029,66
DA:1048,63
DA:1049,63
DA:1068,66
DA:1069,66
DA:1117,204
DA:1119,204
DA:1120,204
DA:1121,0
DA:1122,204
DA:1128,48
DA:1129,48
DA:1223,3
DA:1224,6
DA:1280,3
DA:1282,3
DA:1283,3
DA:1368,3
DA:1370,3
DA:1371,9
DA:1416,21
DA:1418,21
DA:1421,0
DA:1423,0
DA:1427,21
DA:1428,21
DA:1433,3
DA:1434,3
DA:1844,192
DA:1847,384
DA:1850,192
DA:1851,192
DA:1852,192
DA:1853,192
DA:1875,24
DA:1876,24
DA:1877,24
DA:1880,24
DA:1882,24
DA:1883,3
DA:1884,24
DA:2202,24
DA:2204,24
DA:2205,0
DA:2207,24
DA:2208,24
DA:2222,48
DA:2227,48
DA:2229,48
DA:2230,48
LF:96
LH:92
end_of_record
TN:
SF:/usr/include/c++/15/bits/unique_ptr.h
FNL:0,167,167
FNA:0,24,_ZNSt15__uniq_ptr_implINSt7__cxx1112basic_stringIcSt11char_traitsIcESaIcEEESt14default_deleteIS5_EEC2Ev
FNL:1,190,190
FNA:1,24,_ZNSt15__uniq_ptr_implINSt7__cxx1112basic_stringIcSt11char_traitsIcESaIcEEESt14default_deleteIS5_EE6_M_ptrEv
FNA:1,480,_ZNSt15__uniq_ptr_implINSt7__cxx1118basic_stringstreamIcSt11char_traitsIcESaIcEEESt14default_deleteIS5_EE6_M_ptrEv
FNL:2,192,192
FNA:2,3,_ZNKSt15__uniq_ptr_implIN7testing8internal11ThreadLocalIPNS0_8SequenceEE18ValueHolderFactoryESt14default_deleteIS6_EE6_M_ptrEv
FNA:2,0,_ZNKSt15__uniq_ptr_implINSt7__cxx1112basic_stringIcSt11char_traitsIcESaIcEEESt14default_deleteIS5_EE6_M_ptrEv
FNL:3,194,194
FNA:3,0,_ZNSt15__uniq_ptr_implINSt7__cxx1112basic_stringIcSt11char_traitsIcESaIcEEESt14default_deleteIS5_EE10_M_deleterEv
FNA:3,240,_ZNSt15__uniq_ptr_implINSt7__cxx1118basic_stringstreamIcSt11char_traitsIcESaIcEEESt14default_deleteIS5_EE10_M_deleterEv
FNL:4,297,299
FNA:4,24,_ZNSt10unique_ptrINSt7__cxx1112basic_stringIcSt11char_traitsIcESaIcEEESt14default_deleteIS5_EEC2IS7_vEEv
FNL:5,392,400
FNA:5,24,_ZNSt10unique_ptrINSt7__cxx1112basic_stringIcSt11char_traitsIcESaIcEEESt14default_deleteIS5_EED2Ev
FNA:5,240,_ZNSt10unique_ptrINSt7__cxx1118basic_stringstreamIcSt11char_traitsIcESaIcEEESt14default_deleteIS5_EED2Ev
FNL:6,462,466
FNA:6,3,_ZNKSt10unique_ptrIN7testing8internal11ThreadLocalIPNS0_8SequenceEE18ValueHolderFactoryESt14default_deleteIS6_EEptEv
FNA:6,0,_ZNKSt10unique_ptrINSt7__cxx1112basic_stringIcSt11char_traitsIcESaIcEEESt14default_deleteIS5_EEptEv
FNL:7,471,472
FNA:7,3,_ZNKSt10unique_ptrIN7testing8internal11ThreadLocalIPNS0_8SequenceEE18ValueHolderFactoryESt14default_deleteIS6_EE3getEv
FNA:7,0,_ZNKSt10unique_ptrINSt7__cxx1112basic_stringIcSt11char_traitsIcESaIcEEESt14default_deleteIS5_EE3getEv
FNL:8,477,478
FNA:8,0,_ZNSt10unique_ptrINSt7__cxx1112basic_stringIcSt11char_traitsIcESaIcEEESt14default_deleteIS5_EE11get_deleterEv
FNA:8,240,_ZNSt10unique_ptrINSt7__cxx1118basic_stringstreamIcSt11char_traitsIcESaIcEEESt14default_deleteIS5_EE11get_deleterEv
FNL:9,488,489
FNA:9,0,_ZNKSt10unique_ptrINSt7__cxx1112basic_stringIcSt11char_traitsIcESaIcEEESt14default_deleteIS5_EEcvbEv
FNL:10,86,93
FNA:10,0,_ZNKSt14default_deleteINSt7__cxx1112basic_stringIcSt11char_traitsIcESaIcEEEEclEPS5_
FNA:10,240,_ZNKSt14default_deleteINSt7__cxx1118basic_stringstreamIcSt11char_traitsIcESaIcEEEEclEPS5_
FNL:11,877,878
FNA:11,0,_ZStneINSt7__cxx1112basic_stringIcSt11char_traitsIcESaIcEEESt14default_deleteIS5_EEbRKSt10unique_ptrIT_T0_EDn
FNF:12
FNH:10
DA:86,240
DA:92,240
DA:93,240
DA:167,24
DA:190,504
DA:192,3
DA:194,240
DA:297,24
DA:298,24
DA:299,24
DA:392,264
DA:396,264
DA:397,264
DA:398,480
DA:399,264
DA:400,264
DA:462,3
DA:465,3
DA:471,3
DA:472,3
DA:477,240
DA:478,240
DA:488,0
DA:489,0
DA:877,0
DA:878,0
LF:26
LH:22
end_of_record
TN:
SF:/usr/include/c++/15/bits/vector.tcc
FNL:0,111,127
FNA:0,3,_ZNSt6vectorIPKvSaIS1_EE12emplace_backIJS1_EEERS1_DpOT_
FNL:1,557,647
FNA:1,3,_ZNSt6vectorIPKvSaIS1_EE17_M_realloc_appendIJS1_EEEvDpOT_
FNA:1,21,_ZNSt6vectorISt10shared_ptrIN7testing8internal15ExpectationBaseEESaIS4_EE17_M_realloc_appendIJRKS4_EEEvDpOT_
FNF:2
FNH:2
DA:111,3
DA:114,3
DA:117,0
DA:119,0
DA:123,3
DA:125,3
DA:557,24
DA:566,24
DA:567,24
DA:568,0
DA:569,24
DA:570,24
DA:571,24
DA:572,24
DA:573,24
DA:576,24
DA:586,24
DA:587,24
DA:599,24
DA:600,24
DA:601,24
DA:638,24
DA:639,24
DA:640,24
DA:644,24
DA:645,24
DA:646,24
DA:647,24
LF:28
LH:25
end_of_record
TN:
SF:/usr/include/c++/15/ext/aligned_buffer.h
FNL:0,107,110
FNA:0,9,_ZN9__gnu_cxx16__aligned_bufferIN7testing10OnceActionIFivEEEE7_M_addrEv
FNA:0,9,_ZN9__gnu_cxx16__aligned_bufferIN7testing8internal12ReturnActionIiE4ImplIiEEE7_M_addrEv
FNL:1,119,120
FNA:1,9,_ZN9__gnu_cxx16__aligned_bufferIN7testing10OnceActionIFivEEEE6_M_ptrEv
FNA:1,9,_ZN9__gnu_cxx16__aligned_bufferIN7testing8internal12ReturnActionIiE4ImplIiEEE6_M_ptrEv
FNL:2,70,71
FNA:2,0,_ZN9__gnu_cxx16__aligned_membufIN7testing11ExpectationEE7_M_addrEv
FNL:3,74,75
FNA:3,0,_ZNK9__gnu_cxx16__aligned_membufIN7testing11ExpectationEE7_M_addrEv
FNL:4,78,79
FNA:4,0,_ZN9__gnu_cxx16__aligned_membufIN7testing11ExpectationEE6_M_ptrEv
FNL:5,82,83
FNA:5,0,_ZNK9__gnu_cxx16__aligned_membufIN7testing11ExpectationEE6_M_ptrEv
FNF:6
FNH:2
DA:70,0
DA:71,0
DA:74,0
DA:75,0
DA:78,0
DA:79,0
DA:82,0
DA:83,0
DA:107,18
DA:109,18
DA:119,18
DA:120,18
LF:12
LH:4
end_of_record
TN:
SF:/usr/include/c++/15/ext/alloc_traits.h
FNF:0
FNH:0
DA:100,168
DA:104,192
LF:2
LH:2
end_of_record
TN:
SF:/usr/include/c++/15/ext/atomicity.h
FNF:0
FNH:0
DA:54,180
DA:68,0
DA:73,0
DA:86,90
DA:87,90
DA:88,90
DA:94,90
DA:100,90
DA:101,90
DA:103,0
DA:110,90
DA:114,90
LF:12
LH:9
end_of_record
TN:
SF:/usr/include/c++/15/new
FNL:0,206,208
FNA:0,462,_ZnwmPv
FNL:1,217,219
FNA:1,0,_ZdlPvS_
FNF:2
FNH:1
DA:206,462
DA:208,462
DA:217,0
DA:219,0
LF:4
LH:2
end_of_record
TN:
SF:/usr/include/c++/15/string_view
FNL:0,144,147
FNA:0,0,_ZNSt17basic_string_viewIcSt11char_traitsIcEEC2EPKc
FNL:1,150,152
FNA:1,0,_ZNSt17basic_string_viewIcSt11char_traitsIcEEC2EPKcm
FNF:2
FNH:0
DA:144,0
DA:145,0
DA:146,0
DA:147,0
DA:150,0
DA:151,0
DA:152,0
LF:7
LH:0
end_of_record
TN:
SF:/usr/include/c++/15/tuple
FNL:0,137,137
FNA:0,0,_ZNSt10_Head_baseILm1ESt14default_deleteINSt7__cxx1112basic_stringIcSt11char_traitsIcESaIcEEEELb1EE7_M_headERS8_
FNA:0,240,_ZNSt10_Head_baseILm1ESt14default_deleteINSt7__cxx1118basic_stringstreamIcSt11char_traitsIcESaIcEEEELb1EE7_M_headERS8_
FNL:1,1488,1491
FNA:1,9,_ZNSt5tupleIJN7testing7MatcherIiEEEEC2IJS2_ELb1ELb1EEEDpOT_
FNA:1,12,_ZNSt5tupleIJiEEC2IJiELb1ELb1EEEDpOT_
FNL:2,1502,1502
FNA:2,18,_ZNSt5tupleIJN7testing7MatcherIiEEEEC2ERKS3_
FNL:3,1504,1504
FNA:3,0,_ZNSt5tupleIJiEEC2EOS0_
FNL:4,202,203
FNA:4,24,_ZNSt10_Head_baseILm0EPNSt7__cxx1112basic_stringIcSt11char_traitsIcESaIcEEELb0EEC2Ev
FNL:5,208,208
FNA:5,18,_ZNSt10_Head_baseILm0EN7testing7MatcherIiEELb0EEC2ERKS3_
FNL:6,2090,2092
FNA:6,24,_ZNSt5tupleIJPNSt7__cxx1112basic_stringIcSt11char_traitsIcESaIcEEESt14default_deleteIS5_EEEC2ILb1ELb1EEEv
FNL:7,2118,2121
FNA:7,0,_ZNSt5tupleIJPKN7testing8internal11MatcherBaseIRKS_IJEEEEPKNS1_15AnythingMatcherEEEC2IS8_SB_Lb1EEEOT_OT0_
FNA:7,0,_ZNSt5tupleIJPKN7testing8internal11MatcherBaseIRKS_IJiEEEEPKNS1_15AnythingMatcherEEEC2IS8_SB_Lb1EEEOT_OT0_
FNA:7,0,_ZNSt5tupleIJPKN7testing8internal11MatcherBaseIiEEPKNS1_9EqMatcherIiEEEEC2IS5_S9_Lb1EEEOT_OT0_
FNL:8,212,213
FNA:8,9,_ZNSt10_Head_baseILm0EN7testing7MatcherIiEELb0EEC2IS2_EEOT_
FNA:8,0,_ZNSt10_Head_baseILm0EPKN7testing8internal11MatcherBaseIRKSt5tupleIJEEEELb0EEC2IS9_EEOT_
FNA:8,0,_ZNSt10_Head_baseILm0EPKN7testing8internal11MatcherBaseIRKSt5tupleIJiEEEELb0EEC2IS9_EEOT_
FNA:8,0,_ZNSt10_Head_baseILm0EPKN7testing8internal11MatcherBaseIiEELb0EEC2IS5_EEOT_
FNA:8,12,_ZNSt10_Head_baseILm0EiLb0EEC2IiEEOT_
FNA:8,0,_ZNSt10_Head_baseILm1EPKN7testing8internal15AnythingMatcherELb0EEC2IS4_EEOT_
FNA:8,0,_ZNSt10_Head_baseILm1EPKN7testing8internal9EqMatcherIiEELb0EEC2IS5_EEOT_
FNL:9,2428,2429
FNA:9,0,_ZSt12__get_helperILm0EPKN7testing8internal11MatcherBaseIRKSt5tupleIJEEEEJPKNS1_15AnythingMatcherEEERT0_RSt11_Tuple_implIXT_EJSD_DpT1_EE
FNA:9,0,_ZSt12__get_helperILm0EPKN7testing8internal11MatcherBaseIRKSt5tupleIJiEEEEJPKNS1_15AnythingMatcherEEERT0_RSt11_Tuple_implIXT_EJSD_DpT1_EE
FNA:9,0,_ZSt12__get_helperILm0EPKN7testing8internal11MatcherBaseIiEEJPKNS1_9EqMatcherIiEEEERT0_RSt11_Tuple_implIXT_EJSA_DpT1_EE
FNA:9,24,_ZSt12__get_helperILm0EPNSt7__cxx1112basic_stringIcSt11char_traitsIcESaIcEEEJSt14default_deleteIS5_EEERT0_RSt11_Tuple_implIXT_EJS9_DpT1_EE
FNA:9,480,_ZSt12__get_helperILm0EPNSt7__cxx1118basic_stringstreamIcSt11char_traitsIcESaIcEEEJSt14default_deleteIS5_EEERT0_RSt11_Tuple_implIXT_EJS9_DpT1_EE
FNA:9,0,_ZSt12__get_helperILm0EiJEERT0_RSt11_Tuple_implIXT_EJS0_DpT1_EE
FNA:9,0,_ZSt12__get_helperILm1ESt14default_deleteINSt7__cxx1112basic_stringIcSt11char_traitsIcESaIcEEEEJEERT0_RSt11_Tuple_implIXT_EJS8_DpT1_EE
FNA:9,240,_ZSt12__get_helperILm1ESt14default_deleteINSt7__cxx1118basic_stringstreamIcSt11char_traitsIcESaIcEEEEJEERT0_RSt11_Tuple_implIXT_EJS8_DpT1_EE
FNL:10,2433,2434
FNA:10,12,_ZSt12__get_helperILm0EN7testing7MatcherIiEEJEERKT0_RKSt11_Tuple_implIXT_EJS3_DpT1_EE
FNA:10,3,_ZSt12__get_helperILm0EPN7testing8internal11ThreadLocalIPNS0_8SequenceEE18ValueHolderFactoryEJSt14default_deleteIS6_EEERKT0_RKSt11_Tuple_implIXT_EJSA_DpT1_EE
FNA:10,0,_ZSt12__get_helperILm0EPNSt7__cxx1112basic_stringIcSt11char_traitsIcESaIcEEEJSt14default_deleteIS5_EEERKT0_RKSt11_Tuple_implIXT_EJS9_DpT1_EE
FNA:10,12,_ZSt12__get_helperILm0EiJEERKT0_RKSt11_Tuple_implIXT_EJS0_DpT1_EE
FNL:11,2444,2445
FNA:11,24,_ZSt3getILm0EJPNSt7__cxx1112basic_stringIcSt11char_traitsIcESaIcEEESt14default_deleteIS5_EEERNSt13tuple_elementIXT_ESt5tupleIJDpT0_EEE4typeERSD_
FNA:11,480,_ZSt3getILm0EJPNSt7__cxx1118basic_stringstreamIcSt11char_traitsIcESaIcEEESt14default_deleteIS5_EEERNSt13tuple_elementIXT_ESt5tupleIJDpT0_EEE4typeERSD_
FNA:11,0,_ZSt3getILm1EJPNSt7__cxx1112basic_stringIcSt11char_traitsIcESaIcEEESt14default_deleteIS5_EEERNSt13tuple_elementIXT_ESt5tupleIJDpT0_EEE4typeERSD_
FNA:11,240,_ZSt3getILm1EJPNSt7__cxx1118basic_stringstreamIcSt11char_traitsIcESaIcEEESt14default_deleteIS5_EEERNSt13tuple_elementIXT_ESt5tupleIJDpT0_EEE4typeERSD_
FNL:12,2450,2451
FNA:12,12,_ZSt3getILm0EJN7testing7MatcherIiEEEERKNSt13tuple_elementIXT_ESt5tupleIJDpT0_EEE4typeERKS7_
FNA:12,3,_ZSt3getILm0EJPN7testing8internal11ThreadLocalIPNS0_8SequenceEE18ValueHolderFactoryESt14default_deleteIS6_EEERKNSt13tuple_elementIXT_ESt5tupleIJDpT0_EEE4typeERKSE_
FNA:12,0,_ZSt3getILm0EJPNSt7__cxx1112basic_stringIcSt11char_traitsIcESaIcEEESt14default_deleteIS5_EEERKNSt13tuple_elementIXT_ESt5tupleIJDpT0_EEE4typeERKSD_
FNA:12,12,_ZSt3getILm0EJiEERKNSt13tuple_elementIXT_ESt5tupleIJDpT0_EEE4typeERKS4_
FNL:13,2456,2460
FNA:13,0,_ZSt3getILm0EJPKN7testing8internal11MatcherBaseIRKSt5tupleIJEEEEPKNS1_15AnythingMatcherEEEONSt13tuple_elementIXT_ES3_IJDpT0_EEE4typeEOSG_
FNA:13,0,_ZSt3getILm0EJPKN7testing8internal11MatcherBaseIRKSt5tupleIJiEEEEPKNS1_15AnythingMatcherEEEONSt13tuple_elementIXT_ES3_IJDpT0_EEE4typeEOSG_
FNA:13,0,_ZSt3getILm0EJPKN7testing8internal11MatcherBaseIiEEPKNS1_9EqMatcherIiEEEEONSt13tuple_elementIXT_ESt5tupleIJDpT0_EEE4typeEOSE_
FNA:13,0,_ZSt3getILm0EJiEEONSt13tuple_elementIXT_ESt5tupleIJDpT0_EEE4typeEOS4_
FNL:14,246,246
FNA:14,0,_ZNSt10_Head_baseILm0EPKN7testing8internal11MatcherBaseIRKSt5tupleIJEEEELb0EE7_M_headERSA_
FNA:14,0,_ZNSt10_Head_baseILm0EPKN7testing8internal11MatcherBaseIRKSt5tupleIJiEEEELb0EE7_M_headERSA_
FNA:14,0,_ZNSt10_Head_baseILm0EPKN7testing8internal11MatcherBaseIiEELb0EE7_M_headERS6_
FNA:14,24,_ZNSt10_Head_baseILm0EPNSt7__cxx1112basic_stringIcSt11char_traitsIcESaIcEEELb0EE7_M_headERS7_
FNA:14,480,_ZNSt10_Head_baseILm0EPNSt7__cxx1118basic_stringstreamIcSt11char_traitsIcESaIcEEELb0EE7_M_headERS7_
FNA:14,0,_ZNSt10_Head_baseILm0EiLb0EE7_M_headERS0_
FNL:15,249,249
FNA:15,12,_ZNSt10_Head_baseILm0EN7testing7MatcherIiEELb0EE7_M_headERKS3_
FNA:15,3,_ZNSt10_Head_baseILm0EPN7testing8internal11ThreadLocalIPNS0_8SequenceEE18ValueHolderFactoryELb0EE7_M_headERKS8_
FNA:15,0,_ZNSt10_Head_baseILm0EPNSt7__cxx1112basic_stringIcSt11char_traitsIcESaIcEEELb0EE7_M_headERKS7_
FNA:15,12,_ZNSt10_Head_baseILm0EiLb0EE7_M_headERKS0_
FNL:16,2668,2673
FNA:16,12,_ZSt10make_tupleIJEESt5tupleIJDpNSt25__strip_reference_wrapperINSt5decayIT_E4typeEE6__typeEEEDpOS3_
FNA:16,9,_ZSt10make_tupleIJN7testing7MatcherIiEEEESt5tupleIJDpNSt25__strip_reference_wrapperINSt5decayIT_E4typeEE6__typeEEEDpOS6_
FNA:16,0,_ZSt10make_tupleIJPKN7testing8internal11MatcherBaseIRKSt5tupleIJEEEEPKNS1_15AnythingMatcherEEES3_IJDpNSt25__strip_reference_wrapperINSt5decayIT_E4typeEE6__typeEEEDpOSF_
FNA:16,0,_ZSt10make_tupleIJPKN7testing8internal11MatcherBaseIRKSt5tupleIJiEEEEPKNS1_15AnythingMatcherEEES3_IJDpNSt25__strip_reference_wrapperINSt5decayIT_E4typeEE6__typeEEEDpOSF_
FNA:16,0,_ZSt10make_tupleIJPKN7testing8internal11MatcherBaseIiEEPKNS1_9EqMatcherIiEEEESt5tupleIJDpNSt25__strip_reference_wrapperINSt5decayIT_E4typeEE6__typeEEEDpOSD_
FNL:17,291,291
FNA:17,0,_ZNSt11_Tuple_implILm0EJPKN7testing8internal11MatcherBaseIRKSt5tupleIJEEEEPKNS1_15AnythingMatcherEEE7_M_headERSD_
FNA:17,0,_ZNSt11_Tuple_implILm0EJPKN7testing8internal11MatcherBaseIRKSt5tupleIJiEEEEPKNS1_15AnythingMatcherEEE7_M_headERSD_
FNA:17,0,_ZNSt11_Tuple_implILm0EJPKN7testing8internal11MatcherBaseIiEEPKNS1_9EqMatcherIiEEEE7_M_headERSA_
FNA:17,24,_ZNSt11_Tuple_implILm0EJPNSt7__cxx1112basic_stringIcSt11char_traitsIcESaIcEEESt14default_deleteIS5_EEE7_M_headERS9_
FNA:17,480,_ZNSt11_Tuple_implILm0EJPNSt7__cxx1118basic_stringstreamIcSt11char_traitsIcESaIcEEESt14default_deleteIS5_EEE7_M_headERS9_
FNL:18,294,294
FNA:18,3,_ZNSt11_Tuple_implILm0EJPN7testing8internal11ThreadLocalIPNS0_8SequenceEE18ValueHolderFactoryESt14default_deleteIS6_EEE7_M_headERKSA_
FNA:18,0,_ZNSt11_Tuple_implILm0EJPNSt7__cxx1112basic_stringIcSt11char_traitsIcESaIcEEESt14default_deleteIS5_EEE7_M_headERKS9_
FNL:19,302,303
FNA:19,24,_ZNSt11_Tuple_implILm0EJPNSt7__cxx1112basic_stringIcSt11char_traitsIcESaIcEEESt14default_deleteIS5_EEEC2Ev
FNL:20,313,316
FNA:20,0,_ZNSt11_Tuple_implILm0EJPKN7testing8internal11MatcherBaseIRKSt5tupleIJEEEEPKNS1_15AnythingMatcherEEEC2IS9_JSC_EvEEOT_DpOT0_
FNA:20,0,_ZNSt11_Tuple_implILm0EJPKN7testing8internal11MatcherBaseIRKSt5tupleIJiEEEEPKNS1_15AnythingMatcherEEEC2IS9_JSC_EvEEOT_DpOT0_
FNA:20,0,_ZNSt11_Tuple_implILm0EJPKN7testing8internal11MatcherBaseIiEEPKNS1_9EqMatcherIiEEEEC2IS5_JS9_EvEEOT_DpOT0_
FNL:21,554,554
FNA:21,0,_ZNSt11_Tuple_implILm0EJiEE7_M_headERS0_
FNA:21,0,_ZNSt11_Tuple_implILm1EJSt14default_deleteINSt7__cxx1112basic_stringIcSt11char_traitsIcESaIcEEEEEE7_M_headERS8_
FNA:21,240,_ZNSt11_Tuple_implILm1EJSt14default_deleteINSt7__cxx1118basic_stringstreamIcSt11char_traitsIcESaIcEEEEEE7_M_headERS8_
FNL:22,557,557
FNA:22,12,_ZNSt11_Tuple_implILm0EJN7testing7MatcherIiEEEE7_M_headERKS3_
FNA:22,12,_ZNSt11_Tuple_implILm0EJiEE7_M_headERKS0_
FNL:23,560,561
FNA:23,24,_ZNSt11_Tuple_implILm1EJSt14default_deleteINSt7__cxx1112basic_stringIcSt11char_traitsIcESaIcEEEEEEC2Ev
FNL:24,570,572
FNA:24,9,_ZNSt11_Tuple_implILm0EJN7testing7MatcherIiEEEEC2IS2_EEOT_
FNA:24,12,_ZNSt11_Tuple_implILm0EJiEEC2IiEEOT_
FNA:24,0,_ZNSt11_Tuple_implILm1EJPKN7testing8internal15AnythingMatcherEEEC2IS4_EEOT_
FNA:24,0,_ZNSt11_Tuple_implILm1EJPKN7testing8internal9EqMatcherIiEEEEC2IS5_EEOT_
FNL:25,574,574
FNA:25,18,_ZNSt11_Tuple_implILm0EJN7testing7MatcherIiEEEEC2ERKS3_
FNL:26,584,587
FNA:26,0,_ZNSt11_Tuple_implILm0EJiEEC2EOS0_
FNL:27,93,94
FNA:27,24,_ZNSt10_Head_baseILm1ESt14default_deleteINSt7__cxx1112basic_stringIcSt11char_traitsIcESaIcEEEELb1EEC2Ev
FNF:28
FNH:23
DA:93,24
DA:94,24
DA:137,240
DA:202,24
DA:203,24
DA:208,18
DA:212,21
DA:213,30
DA:246,504
DA:249,27
DA:291,504
DA:294,3
DA:302,24
DA:303,24
DA:313,0
DA:315,0
DA:316,0
DA:554,240
DA:557,24
DA:560,24
DA:561,24
DA:570,21
DA:571,42
DA:572,21
DA:574,18
DA:584,0
DA:586,0
DA:587,0
DA:1488,21
DA:1490,42
DA:1491,21
DA:1502,18
DA:1504,0
DA:2090,24
DA:2092,24
DA:2118,0
DA:2120,0
DA:2121,0
DA:2428,744
DA:2429,744
DA:2433,27
DA:2434,27
DA:2444,744
DA:2445,744
DA:2450,27
DA:2451,27
DA:2456,0
DA:2459,0
DA:2668,21
DA:2672,21
LF:50
LH:38
end_of_record
TN:
SF:/usr/include/c++/15/typeinfo
FNL:0,104,105
FNA:0,0,_ZNKSt9type_info4nameEv
FNL:1,197,214
FNA:1,0,_ZNKSt9type_infoeqERKS_
FNF:2
FNH:0
DA:104,0
DA:105,0
DA:197,0
DA:199,0
DA:200,0
DA:202,0
DA:203,0
DA:210,0
LF:8
LH:0
end_of_record
TN:
SF:/usr/include/x86_64-linux-gnu/c++/15/bits/c++config.h
FNF:0
FNH:0
DA:589,1293
LF:1
LH:1
end_of_record
